
cs257:     file format elf64-x86-64


Disassembly of section .init:

0000000000400d90 <_init>:
  400d90:	48 83 ec 08          	sub    $0x8,%rsp
  400d94:	48 8b 05 5d 22 20 00 	mov    0x20225d(%rip),%rax        # 602ff8 <_DYNAMIC+0x210>
  400d9b:	48 85 c0             	test   %rax,%rax
  400d9e:	74 05                	je     400da5 <_init+0x15>
  400da0:	e8 8b 00 00 00       	callq  400e30 <__gmon_start__@plt>
  400da5:	48 83 c4 08          	add    $0x8,%rsp
  400da9:	c3                   	retq   

Disassembly of section .plt:

0000000000400db0 <glutSwapBuffers@plt-0x10>:
  400db0:	ff 35 52 22 20 00    	pushq  0x202252(%rip)        # 603008 <_GLOBAL_OFFSET_TABLE_+0x8>
  400db6:	ff 25 54 22 20 00    	jmpq   *0x202254(%rip)        # 603010 <_GLOBAL_OFFSET_TABLE_+0x10>
  400dbc:	0f 1f 40 00          	nopl   0x0(%rax)

0000000000400dc0 <glutSwapBuffers@plt>:
  400dc0:	ff 25 52 22 20 00    	jmpq   *0x202252(%rip)        # 603018 <_GLOBAL_OFFSET_TABLE_+0x18>
  400dc6:	68 00 00 00 00       	pushq  $0x0
  400dcb:	e9 e0 ff ff ff       	jmpq   400db0 <_init+0x20>

0000000000400dd0 <glEnd@plt>:
  400dd0:	ff 25 4a 22 20 00    	jmpq   *0x20224a(%rip)        # 603020 <_GLOBAL_OFFSET_TABLE_+0x20>
  400dd6:	68 01 00 00 00       	pushq  $0x1
  400ddb:	e9 d0 ff ff ff       	jmpq   400db0 <_init+0x20>

0000000000400de0 <glEnable@plt>:
  400de0:	ff 25 42 22 20 00    	jmpq   *0x202242(%rip)        # 603028 <_GLOBAL_OFFSET_TABLE_+0x28>
  400de6:	68 02 00 00 00       	pushq  $0x2
  400deb:	e9 c0 ff ff ff       	jmpq   400db0 <_init+0x20>

0000000000400df0 <glHint@plt>:
  400df0:	ff 25 3a 22 20 00    	jmpq   *0x20223a(%rip)        # 603030 <_GLOBAL_OFFSET_TABLE_+0x30>
  400df6:	68 03 00 00 00       	pushq  $0x3
  400dfb:	e9 b0 ff ff ff       	jmpq   400db0 <_init+0x20>

0000000000400e00 <posix_memalign@plt>:
  400e00:	ff 25 32 22 20 00    	jmpq   *0x202232(%rip)        # 603038 <_GLOBAL_OFFSET_TABLE_+0x38>
  400e06:	68 04 00 00 00       	pushq  $0x4
  400e0b:	e9 a0 ff ff ff       	jmpq   400db0 <_init+0x20>

0000000000400e10 <glutInitWindowSize@plt>:
  400e10:	ff 25 2a 22 20 00    	jmpq   *0x20222a(%rip)        # 603040 <_GLOBAL_OFFSET_TABLE_+0x40>
  400e16:	68 05 00 00 00       	pushq  $0x5
  400e1b:	e9 90 ff ff ff       	jmpq   400db0 <_init+0x20>

0000000000400e20 <glMatrixMode@plt>:
  400e20:	ff 25 22 22 20 00    	jmpq   *0x202222(%rip)        # 603048 <_GLOBAL_OFFSET_TABLE_+0x48>
  400e26:	68 06 00 00 00       	pushq  $0x6
  400e2b:	e9 80 ff ff ff       	jmpq   400db0 <_init+0x20>

0000000000400e30 <__gmon_start__@plt>:
  400e30:	ff 25 1a 22 20 00    	jmpq   *0x20221a(%rip)        # 603050 <_GLOBAL_OFFSET_TABLE_+0x50>
  400e36:	68 07 00 00 00       	pushq  $0x7
  400e3b:	e9 70 ff ff ff       	jmpq   400db0 <_init+0x20>

0000000000400e40 <glClear@plt>:
  400e40:	ff 25 12 22 20 00    	jmpq   *0x202212(%rip)        # 603058 <_GLOBAL_OFFSET_TABLE_+0x58>
  400e46:	68 08 00 00 00       	pushq  $0x8
  400e4b:	e9 60 ff ff ff       	jmpq   400db0 <_init+0x20>

0000000000400e50 <exit@plt>:
  400e50:	ff 25 0a 22 20 00    	jmpq   *0x20220a(%rip)        # 603060 <_GLOBAL_OFFSET_TABLE_+0x60>
  400e56:	68 09 00 00 00       	pushq  $0x9
  400e5b:	e9 50 ff ff ff       	jmpq   400db0 <_init+0x20>

0000000000400e60 <__printf_chk@plt>:
  400e60:	ff 25 02 22 20 00    	jmpq   *0x202202(%rip)        # 603068 <_GLOBAL_OFFSET_TABLE_+0x68>
  400e66:	68 0a 00 00 00       	pushq  $0xa
  400e6b:	e9 40 ff ff ff       	jmpq   400db0 <_init+0x20>

0000000000400e70 <gettimeofday@plt>:
  400e70:	ff 25 fa 21 20 00    	jmpq   *0x2021fa(%rip)        # 603070 <_GLOBAL_OFFSET_TABLE_+0x70>
  400e76:	68 0b 00 00 00       	pushq  $0xb
  400e7b:	e9 30 ff ff ff       	jmpq   400db0 <_init+0x20>

0000000000400e80 <glutIdleFunc@plt>:
  400e80:	ff 25 f2 21 20 00    	jmpq   *0x2021f2(%rip)        # 603078 <_GLOBAL_OFFSET_TABLE_+0x78>
  400e86:	68 0c 00 00 00       	pushq  $0xc
  400e8b:	e9 20 ff ff ff       	jmpq   400db0 <_init+0x20>

0000000000400e90 <glutInit@plt>:
  400e90:	ff 25 ea 21 20 00    	jmpq   *0x2021ea(%rip)        # 603080 <_GLOBAL_OFFSET_TABLE_+0x80>
  400e96:	68 0d 00 00 00       	pushq  $0xd
  400e9b:	e9 10 ff ff ff       	jmpq   400db0 <_init+0x20>

0000000000400ea0 <malloc@plt>:
  400ea0:	ff 25 e2 21 20 00    	jmpq   *0x2021e2(%rip)        # 603088 <_GLOBAL_OFFSET_TABLE_+0x88>
  400ea6:	68 0e 00 00 00       	pushq  $0xe
  400eab:	e9 00 ff ff ff       	jmpq   400db0 <_init+0x20>

0000000000400eb0 <__libc_start_main@plt>:
  400eb0:	ff 25 da 21 20 00    	jmpq   *0x2021da(%rip)        # 603090 <_GLOBAL_OFFSET_TABLE_+0x90>
  400eb6:	68 0f 00 00 00       	pushq  $0xf
  400ebb:	e9 f0 fe ff ff       	jmpq   400db0 <_init+0x20>

0000000000400ec0 <glutDisplayFunc@plt>:
  400ec0:	ff 25 d2 21 20 00    	jmpq   *0x2021d2(%rip)        # 603098 <_GLOBAL_OFFSET_TABLE_+0x98>
  400ec6:	68 10 00 00 00       	pushq  $0x10
  400ecb:	e9 e0 fe ff ff       	jmpq   400db0 <_init+0x20>

0000000000400ed0 <glLoadIdentity@plt>:
  400ed0:	ff 25 ca 21 20 00    	jmpq   *0x2021ca(%rip)        # 6030a0 <_GLOBAL_OFFSET_TABLE_+0xa0>
  400ed6:	68 11 00 00 00       	pushq  $0x11
  400edb:	e9 d0 fe ff ff       	jmpq   400db0 <_init+0x20>

0000000000400ee0 <glClearColor@plt>:
  400ee0:	ff 25 c2 21 20 00    	jmpq   *0x2021c2(%rip)        # 6030a8 <_GLOBAL_OFFSET_TABLE_+0xa8>
  400ee6:	68 12 00 00 00       	pushq  $0x12
  400eeb:	e9 c0 fe ff ff       	jmpq   400db0 <_init+0x20>

0000000000400ef0 <glutInitWindowPosition@plt>:
  400ef0:	ff 25 ba 21 20 00    	jmpq   *0x2021ba(%rip)        # 6030b0 <_GLOBAL_OFFSET_TABLE_+0xb0>
  400ef6:	68 13 00 00 00       	pushq  $0x13
  400efb:	e9 b0 fe ff ff       	jmpq   400db0 <_init+0x20>

0000000000400f00 <free@plt>:
  400f00:	ff 25 b2 21 20 00    	jmpq   *0x2021b2(%rip)        # 6030b8 <_GLOBAL_OFFSET_TABLE_+0xb8>
  400f06:	68 14 00 00 00       	pushq  $0x14
  400f0b:	e9 a0 fe ff ff       	jmpq   400db0 <_init+0x20>

0000000000400f10 <glutPostRedisplay@plt>:
  400f10:	ff 25 aa 21 20 00    	jmpq   *0x2021aa(%rip)        # 6030c0 <_GLOBAL_OFFSET_TABLE_+0xc0>
  400f16:	68 15 00 00 00       	pushq  $0x15
  400f1b:	e9 90 fe ff ff       	jmpq   400db0 <_init+0x20>

0000000000400f20 <usleep@plt>:
  400f20:	ff 25 a2 21 20 00    	jmpq   *0x2021a2(%rip)        # 6030c8 <_GLOBAL_OFFSET_TABLE_+0xc8>
  400f26:	68 16 00 00 00       	pushq  $0x16
  400f2b:	e9 80 fe ff ff       	jmpq   400db0 <_init+0x20>

0000000000400f30 <glTranslatef@plt>:
  400f30:	ff 25 9a 21 20 00    	jmpq   *0x20219a(%rip)        # 6030d0 <_GLOBAL_OFFSET_TABLE_+0xd0>
  400f36:	68 17 00 00 00       	pushq  $0x17
  400f3b:	e9 70 fe ff ff       	jmpq   400db0 <_init+0x20>

0000000000400f40 <strtol@plt>:
  400f40:	ff 25 92 21 20 00    	jmpq   *0x202192(%rip)        # 6030d8 <_GLOBAL_OFFSET_TABLE_+0xd8>
  400f46:	68 18 00 00 00       	pushq  $0x18
  400f4b:	e9 60 fe ff ff       	jmpq   400db0 <_init+0x20>

0000000000400f50 <glutCreateWindow@plt>:
  400f50:	ff 25 8a 21 20 00    	jmpq   *0x20218a(%rip)        # 6030e0 <_GLOBAL_OFFSET_TABLE_+0xe0>
  400f56:	68 19 00 00 00       	pushq  $0x19
  400f5b:	e9 50 fe ff ff       	jmpq   400db0 <_init+0x20>

0000000000400f60 <glBegin@plt>:
  400f60:	ff 25 82 21 20 00    	jmpq   *0x202182(%rip)        # 6030e8 <_GLOBAL_OFFSET_TABLE_+0xe8>
  400f66:	68 1a 00 00 00       	pushq  $0x1a
  400f6b:	e9 40 fe ff ff       	jmpq   400db0 <_init+0x20>

0000000000400f70 <glVertex3f@plt>:
  400f70:	ff 25 7a 21 20 00    	jmpq   *0x20217a(%rip)        # 6030f0 <_GLOBAL_OFFSET_TABLE_+0xf0>
  400f76:	68 1b 00 00 00       	pushq  $0x1b
  400f7b:	e9 30 fe ff ff       	jmpq   400db0 <_init+0x20>

0000000000400f80 <srand@plt>:
  400f80:	ff 25 72 21 20 00    	jmpq   *0x202172(%rip)        # 6030f8 <_GLOBAL_OFFSET_TABLE_+0xf8>
  400f86:	68 1c 00 00 00       	pushq  $0x1c
  400f8b:	e9 20 fe ff ff       	jmpq   400db0 <_init+0x20>

0000000000400f90 <glPushMatrix@plt>:
  400f90:	ff 25 6a 21 20 00    	jmpq   *0x20216a(%rip)        # 603100 <_GLOBAL_OFFSET_TABLE_+0x100>
  400f96:	68 1d 00 00 00       	pushq  $0x1d
  400f9b:	e9 10 fe ff ff       	jmpq   400db0 <_init+0x20>

0000000000400fa0 <glColor3f@plt>:
  400fa0:	ff 25 62 21 20 00    	jmpq   *0x202162(%rip)        # 603108 <_GLOBAL_OFFSET_TABLE_+0x108>
  400fa6:	68 1e 00 00 00       	pushq  $0x1e
  400fab:	e9 00 fe ff ff       	jmpq   400db0 <_init+0x20>

0000000000400fb0 <glutInitDisplayMode@plt>:
  400fb0:	ff 25 5a 21 20 00    	jmpq   *0x20215a(%rip)        # 603110 <_GLOBAL_OFFSET_TABLE_+0x110>
  400fb6:	68 1f 00 00 00       	pushq  $0x1f
  400fbb:	e9 f0 fd ff ff       	jmpq   400db0 <_init+0x20>

0000000000400fc0 <glPopMatrix@plt>:
  400fc0:	ff 25 52 21 20 00    	jmpq   *0x202152(%rip)        # 603118 <_GLOBAL_OFFSET_TABLE_+0x118>
  400fc6:	68 20 00 00 00       	pushq  $0x20
  400fcb:	e9 e0 fd ff ff       	jmpq   400db0 <_init+0x20>

0000000000400fd0 <rand@plt>:
  400fd0:	ff 25 4a 21 20 00    	jmpq   *0x20214a(%rip)        # 603120 <_GLOBAL_OFFSET_TABLE_+0x120>
  400fd6:	68 21 00 00 00       	pushq  $0x21
  400fdb:	e9 d0 fd ff ff       	jmpq   400db0 <_init+0x20>

0000000000400fe0 <sqrt@plt>:
  400fe0:	ff 25 42 21 20 00    	jmpq   *0x202142(%rip)        # 603128 <_GLOBAL_OFFSET_TABLE_+0x128>
  400fe6:	68 22 00 00 00       	pushq  $0x22
  400feb:	e9 c0 fd ff ff       	jmpq   400db0 <_init+0x20>

0000000000400ff0 <glutMainLoop@plt>:
  400ff0:	ff 25 3a 21 20 00    	jmpq   *0x20213a(%rip)        # 603130 <_GLOBAL_OFFSET_TABLE_+0x130>
  400ff6:	68 23 00 00 00       	pushq  $0x23
  400ffb:	e9 b0 fd ff ff       	jmpq   400db0 <_init+0x20>

Disassembly of section .text:

0000000000401000 <main>:
  401000:	53                   	push   %rbx
  401001:	48 83 ec 10          	sub    $0x10,%rsp
  401005:	83 ff 04             	cmp    $0x4,%edi
  401008:	89 7c 24 0c          	mov    %edi,0xc(%rsp)
  40100c:	0f 85 bf 00 00 00    	jne    4010d1 <main+0xd1>
  401012:	48 8b 7e 08          	mov    0x8(%rsi),%rdi
  401016:	48 89 f3             	mov    %rsi,%rbx
  401019:	ba 0a 00 00 00       	mov    $0xa,%edx
  40101e:	31 f6                	xor    %esi,%esi
  401020:	e8 1b ff ff ff       	callq  400f40 <strtol@plt>
  401025:	48 8b 7b 10          	mov    0x10(%rbx),%rdi
  401029:	31 f6                	xor    %esi,%esi
  40102b:	ba 0a 00 00 00       	mov    $0xa,%edx
  401030:	89 05 9a 21 20 00    	mov    %eax,0x20219a(%rip)        # 6031d0 <N>
  401036:	e8 05 ff ff ff       	callq  400f40 <strtol@plt>
  40103b:	48 8b 7b 18          	mov    0x18(%rbx),%rdi
  40103f:	ba 0a 00 00 00       	mov    $0xa,%edx
  401044:	31 f6                	xor    %esi,%esi
  401046:	89 05 74 21 20 00    	mov    %eax,0x202174(%rip)        # 6031c0 <steps>
  40104c:	e8 ef fe ff ff       	callq  400f40 <strtol@plt>
  401051:	be cf 24 40 00       	mov    $0x4024cf,%esi
  401056:	89 05 2c 21 20 00    	mov    %eax,0x20212c(%rip)        # 603188 <vis>
  40105c:	bf 01 00 00 00       	mov    $0x1,%edi
  401061:	31 c0                	xor    %eax,%eax
  401063:	e8 f8 fd ff ff       	callq  400e60 <__printf_chk@plt>
  401068:	be c8 23 40 00       	mov    $0x4023c8,%esi
  40106d:	bf 01 00 00 00       	mov    $0x1,%edi
  401072:	31 c0                	xor    %eax,%eax
  401074:	e8 e7 fd ff ff       	callq  400e60 <__printf_chk@plt>
  401079:	be e8 23 40 00       	mov    $0x4023e8,%esi
  40107e:	bf 01 00 00 00       	mov    $0x1,%edi
  401083:	31 c0                	xor    %eax,%eax
  401085:	e8 d6 fd ff ff       	callq  400e60 <__printf_chk@plt>
  40108a:	8b 15 40 21 20 00    	mov    0x202140(%rip),%edx        # 6031d0 <N>
  401090:	8b 0d 2a 21 20 00    	mov    0x20212a(%rip),%ecx        # 6031c0 <steps>
  401096:	31 c0                	xor    %eax,%eax
  401098:	be 18 24 40 00       	mov    $0x402418,%esi
  40109d:	bf 01 00 00 00       	mov    $0x1,%edi
  4010a2:	e8 b9 fd ff ff       	callq  400e60 <__printf_chk@plt>
  4010a7:	8b 15 db 20 20 00    	mov    0x2020db(%rip),%edx        # 603188 <vis>
  4010ad:	85 d2                	test   %edx,%edx
  4010af:	75 56                	jne    401107 <main+0x107>
  4010b1:	31 c0                	xor    %eax,%eax
  4010b3:	e8 f8 08 00 00       	callq  4019b0 <init>
  4010b8:	8b 05 ca 20 20 00    	mov    0x2020ca(%rip),%eax        # 603188 <vis>
  4010be:	85 c0                	test   %eax,%eax
  4010c0:	75 38                	jne    4010fa <main+0xfa>
  4010c2:	66 0f 1f 44 00 00    	nopw   0x0(%rax,%rax,1)
  4010c8:	31 c0                	xor    %eax,%eax
  4010ca:	e8 81 11 00 00       	callq  402250 <update>
  4010cf:	eb f7                	jmp    4010c8 <main+0xc8>
  4010d1:	be 80 23 40 00       	mov    $0x402380,%esi
  4010d6:	bf 01 00 00 00       	mov    $0x1,%edi
  4010db:	31 c0                	xor    %eax,%eax
  4010dd:	e8 7e fd ff ff       	callq  400e60 <__printf_chk@plt>
  4010e2:	bf 01 00 00 00       	mov    $0x1,%edi
  4010e7:	be ec 24 40 00       	mov    $0x4024ec,%esi
  4010ec:	31 c0                	xor    %eax,%eax
  4010ee:	e8 6d fd ff ff       	callq  400e60 <__printf_chk@plt>
  4010f3:	31 ff                	xor    %edi,%edi
  4010f5:	e8 56 fd ff ff       	callq  400e50 <exit@plt>
  4010fa:	e8 f1 fe ff ff       	callq  400ff0 <glutMainLoop@plt>
  4010ff:	48 83 c4 10          	add    $0x10,%rsp
  401103:	31 c0                	xor    %eax,%eax
  401105:	5b                   	pop    %rbx
  401106:	c3                   	retq   
  401107:	48 8d 7c 24 0c       	lea    0xc(%rsp),%rdi
  40110c:	48 89 de             	mov    %rbx,%rsi
  40110f:	e8 7c fd ff ff       	callq  400e90 <glutInit@plt>
  401114:	eb 9b                	jmp    4010b1 <main+0xb1>

0000000000401116 <_start>:
  401116:	31 ed                	xor    %ebp,%ebp
  401118:	49 89 d1             	mov    %rdx,%r9
  40111b:	5e                   	pop    %rsi
  40111c:	48 89 e2             	mov    %rsp,%rdx
  40111f:	48 83 e4 f0          	and    $0xfffffffffffffff0,%rsp
  401123:	50                   	push   %rax
  401124:	54                   	push   %rsp
  401125:	49 c7 c0 40 23 40 00 	mov    $0x402340,%r8
  40112c:	48 c7 c1 d0 22 40 00 	mov    $0x4022d0,%rcx
  401133:	48 c7 c7 00 10 40 00 	mov    $0x401000,%rdi
  40113a:	e8 71 fd ff ff       	callq  400eb0 <__libc_start_main@plt>
  40113f:	f4                   	hlt    

0000000000401140 <deregister_tm_clones>:
  401140:	b8 5f 31 60 00       	mov    $0x60315f,%eax
  401145:	55                   	push   %rbp
  401146:	48 2d 58 31 60 00    	sub    $0x603158,%rax
  40114c:	48 83 f8 0e          	cmp    $0xe,%rax
  401150:	48 89 e5             	mov    %rsp,%rbp
  401153:	77 02                	ja     401157 <deregister_tm_clones+0x17>
  401155:	5d                   	pop    %rbp
  401156:	c3                   	retq   
  401157:	b8 00 00 00 00       	mov    $0x0,%eax
  40115c:	48 85 c0             	test   %rax,%rax
  40115f:	74 f4                	je     401155 <deregister_tm_clones+0x15>
  401161:	5d                   	pop    %rbp
  401162:	bf 58 31 60 00       	mov    $0x603158,%edi
  401167:	ff e0                	jmpq   *%rax
  401169:	0f 1f 80 00 00 00 00 	nopl   0x0(%rax)

0000000000401170 <register_tm_clones>:
  401170:	b8 58 31 60 00       	mov    $0x603158,%eax
  401175:	55                   	push   %rbp
  401176:	48 2d 58 31 60 00    	sub    $0x603158,%rax
  40117c:	48 c1 f8 03          	sar    $0x3,%rax
  401180:	48 89 e5             	mov    %rsp,%rbp
  401183:	48 89 c2             	mov    %rax,%rdx
  401186:	48 c1 ea 3f          	shr    $0x3f,%rdx
  40118a:	48 01 d0             	add    %rdx,%rax
  40118d:	48 d1 f8             	sar    %rax
  401190:	75 02                	jne    401194 <register_tm_clones+0x24>
  401192:	5d                   	pop    %rbp
  401193:	c3                   	retq   
  401194:	ba 00 00 00 00       	mov    $0x0,%edx
  401199:	48 85 d2             	test   %rdx,%rdx
  40119c:	74 f4                	je     401192 <register_tm_clones+0x22>
  40119e:	5d                   	pop    %rbp
  40119f:	48 89 c6             	mov    %rax,%rsi
  4011a2:	bf 58 31 60 00       	mov    $0x603158,%edi
  4011a7:	ff e2                	jmpq   *%rdx
  4011a9:	0f 1f 80 00 00 00 00 	nopl   0x0(%rax)

00000000004011b0 <__do_global_dtors_aux>:
  4011b0:	80 3d a1 1f 20 00 00 	cmpb   $0x0,0x201fa1(%rip)        # 603158 <__TMC_END__>
  4011b7:	75 11                	jne    4011ca <__do_global_dtors_aux+0x1a>
  4011b9:	55                   	push   %rbp
  4011ba:	48 89 e5             	mov    %rsp,%rbp
  4011bd:	e8 7e ff ff ff       	callq  401140 <deregister_tm_clones>
  4011c2:	5d                   	pop    %rbp
  4011c3:	c6 05 8e 1f 20 00 01 	movb   $0x1,0x201f8e(%rip)        # 603158 <__TMC_END__>
  4011ca:	f3 c3                	repz retq 
  4011cc:	0f 1f 40 00          	nopl   0x0(%rax)

00000000004011d0 <frame_dummy>:
  4011d0:	48 83 3d 08 1c 20 00 	cmpq   $0x0,0x201c08(%rip)        # 602de0 <__JCR_END__>
  4011d7:	00 
  4011d8:	74 1e                	je     4011f8 <frame_dummy+0x28>
  4011da:	b8 00 00 00 00       	mov    $0x0,%eax
  4011df:	48 85 c0             	test   %rax,%rax
  4011e2:	74 14                	je     4011f8 <frame_dummy+0x28>
  4011e4:	55                   	push   %rbp
  4011e5:	bf e0 2d 60 00       	mov    $0x602de0,%edi
  4011ea:	48 89 e5             	mov    %rsp,%rbp
  4011ed:	ff d0                	callq  *%rax
  4011ef:	5d                   	pop    %rbp
  4011f0:	e9 7b ff ff ff       	jmpq   401170 <register_tm_clones>
  4011f5:	0f 1f 00             	nopl   (%rax)
  4011f8:	e9 73 ff ff ff       	jmpq   401170 <register_tm_clones>
  4011fd:	0f 1f 00             	nopl   (%rax)

0000000000401200 <render>:
  401200:	41 54                	push   %r12
  401202:	bf 01 17 00 00       	mov    $0x1701,%edi
  401207:	45 31 e4             	xor    %r12d,%r12d
  40120a:	55                   	push   %rbp
  40120b:	bd 08 00 00 00       	mov    $0x8,%ebp
  401210:	53                   	push   %rbx
  401211:	31 db                	xor    %ebx,%ebx
  401213:	e8 08 fc ff ff       	callq  400e20 <glMatrixMode@plt>
  401218:	e8 b3 fc ff ff       	callq  400ed0 <glLoadIdentity@plt>
  40121d:	bf 00 17 00 00       	mov    $0x1700,%edi
  401222:	e8 f9 fb ff ff       	callq  400e20 <glMatrixMode@plt>
  401227:	bf 00 41 00 00       	mov    $0x4100,%edi
  40122c:	e8 0f fc ff ff       	callq  400e40 <glClear@plt>
  401231:	e8 9a fc ff ff       	callq  400ed0 <glLoadIdentity@plt>
  401236:	8b 05 94 1f 20 00    	mov    0x201f94(%rip),%eax        # 6031d0 <N>
  40123c:	85 c0                	test   %eax,%eax
  40123e:	0f 8e 1d 01 00 00    	jle    401361 <render+0x161>
  401244:	0f 1f 40 00          	nopl   0x0(%rax)
  401248:	e8 43 fd ff ff       	callq  400f90 <glPushMatrix@plt>
  40124d:	48 8b 05 44 1f 20 00 	mov    0x201f44(%rip),%rax        # 603198 <x>
  401254:	41 83 c4 01          	add    $0x1,%r12d
  401258:	f3 0f 10 04 18       	movss  (%rax,%rbx,1),%xmm0
  40125d:	48 8b 05 74 1f 20 00 	mov    0x201f74(%rip),%rax        # 6031d8 <z>
  401264:	f3 0f 10 14 18       	movss  (%rax,%rbx,1),%xmm2
  401269:	48 8b 05 48 1f 20 00 	mov    0x201f48(%rip),%rax        # 6031b8 <y>
  401270:	f3 0f 10 0c 18       	movss  (%rax,%rbx,1),%xmm1
  401275:	e8 b6 fc ff ff       	callq  400f30 <glTranslatef@plt>
  40127a:	48 8b 05 6f 1f 20 00 	mov    0x201f6f(%rip),%rax        # 6031f0 <c>
  401281:	f3 0f 10 44 28 f8    	movss  -0x8(%rax,%rbp,1),%xmm0
  401287:	f3 0f 10 14 28       	movss  (%rax,%rbp,1),%xmm2
  40128c:	f3 0f 10 4c 28 fc    	movss  -0x4(%rax,%rbp,1),%xmm1
  401292:	48 83 c5 0c          	add    $0xc,%rbp
  401296:	e8 05 fd ff ff       	callq  400fa0 <glColor3f@plt>
  40129b:	bf 07 00 00 00       	mov    $0x7,%edi
  4012a0:	e8 bb fc ff ff       	callq  400f60 <glBegin@plt>
  4012a5:	48 8b 05 04 1f 20 00 	mov    0x201f04(%rip),%rax        # 6031b0 <m>
  4012ac:	0f 57 d2             	xorps  %xmm2,%xmm2
  4012af:	f3 0f 10 04 18       	movss  (%rax,%rbx,1),%xmm0
  4012b4:	0f 57 05 55 12 00 00 	xorps  0x1255(%rip),%xmm0        # 402510 <_IO_stdin_used+0x1c0>
  4012bb:	f3 0f 59 05 5d 12 00 	mulss  0x125d(%rip),%xmm0        # 402520 <_IO_stdin_used+0x1d0>
  4012c2:	00 
  4012c3:	0f 28 c8             	movaps %xmm0,%xmm1
  4012c6:	e8 a5 fc ff ff       	callq  400f70 <glVertex3f@plt>
  4012cb:	48 8b 05 de 1e 20 00 	mov    0x201ede(%rip),%rax        # 6031b0 <m>
  4012d2:	0f 57 d2             	xorps  %xmm2,%xmm2
  4012d5:	f3 0f 10 0c 18       	movss  (%rax,%rbx,1),%xmm1
  4012da:	0f 28 c1             	movaps %xmm1,%xmm0
  4012dd:	f3 0f 59 0d 3b 12 00 	mulss  0x123b(%rip),%xmm1        # 402520 <_IO_stdin_used+0x1d0>
  4012e4:	00 
  4012e5:	0f 57 05 24 12 00 00 	xorps  0x1224(%rip),%xmm0        # 402510 <_IO_stdin_used+0x1c0>
  4012ec:	f3 0f 59 05 2c 12 00 	mulss  0x122c(%rip),%xmm0        # 402520 <_IO_stdin_used+0x1d0>
  4012f3:	00 
  4012f4:	e8 77 fc ff ff       	callq  400f70 <glVertex3f@plt>
  4012f9:	48 8b 05 b0 1e 20 00 	mov    0x201eb0(%rip),%rax        # 6031b0 <m>
  401300:	f3 0f 10 05 18 12 00 	movss  0x1218(%rip),%xmm0        # 402520 <_IO_stdin_used+0x1d0>
  401307:	00 
  401308:	0f 57 d2             	xorps  %xmm2,%xmm2
  40130b:	f3 0f 59 04 18       	mulss  (%rax,%rbx,1),%xmm0
  401310:	0f 28 c8             	movaps %xmm0,%xmm1
  401313:	e8 58 fc ff ff       	callq  400f70 <glVertex3f@plt>
  401318:	48 8b 05 91 1e 20 00 	mov    0x201e91(%rip),%rax        # 6031b0 <m>
  40131f:	0f 57 d2             	xorps  %xmm2,%xmm2
  401322:	f3 0f 10 04 18       	movss  (%rax,%rbx,1),%xmm0
  401327:	48 83 c3 04          	add    $0x4,%rbx
  40132b:	0f 28 c8             	movaps %xmm0,%xmm1
  40132e:	f3 0f 59 05 ea 11 00 	mulss  0x11ea(%rip),%xmm0        # 402520 <_IO_stdin_used+0x1d0>
  401335:	00 
  401336:	0f 57 0d d3 11 00 00 	xorps  0x11d3(%rip),%xmm1        # 402510 <_IO_stdin_used+0x1c0>
  40133d:	f3 0f 59 0d db 11 00 	mulss  0x11db(%rip),%xmm1        # 402520 <_IO_stdin_used+0x1d0>
  401344:	00 
  401345:	e8 26 fc ff ff       	callq  400f70 <glVertex3f@plt>
  40134a:	e8 81 fa ff ff       	callq  400dd0 <glEnd@plt>
  40134f:	e8 6c fc ff ff       	callq  400fc0 <glPopMatrix@plt>
  401354:	44 39 25 75 1e 20 00 	cmp    %r12d,0x201e75(%rip)        # 6031d0 <N>
  40135b:	0f 8f e7 fe ff ff    	jg     401248 <render+0x48>
  401361:	5b                   	pop    %rbx
  401362:	5d                   	pop    %rbp
  401363:	41 5c                	pop    %r12
  401365:	e9 56 fa ff ff       	jmpq   400dc0 <glutSwapBuffers@plt>
  40136a:	66 0f 1f 44 00 00    	nopw   0x0(%rax,%rax,1)

0000000000401370 <wtime>:
  401370:	48 83 ec 18          	sub    $0x18,%rsp
  401374:	31 f6                	xor    %esi,%esi
  401376:	48 89 e7             	mov    %rsp,%rdi
  401379:	e8 f2 fa ff ff       	callq  400e70 <gettimeofday@plt>
  40137e:	f2 48 0f 2a 4c 24 08 	cvtsi2sdq 0x8(%rsp),%xmm1
  401385:	f2 48 0f 2a 04 24    	cvtsi2sdq (%rsp),%xmm0
  40138b:	f2 0f 59 0d 9d 11 00 	mulsd  0x119d(%rip),%xmm1        # 402530 <_IO_stdin_used+0x1e0>
  401392:	00 
  401393:	48 83 c4 18          	add    $0x18,%rsp
  401397:	f2 0f 58 c1          	addsd  %xmm1,%xmm0
  40139b:	c3                   	retq   
  40139c:	0f 1f 40 00          	nopl   0x0(%rax)

00000000004013a0 <compute>:
  4013a0:	41 55                	push   %r13
  4013a2:	41 54                	push   %r12
  4013a4:	55                   	push   %rbp
  4013a5:	53                   	push   %rbx
  4013a6:	48 83 ec 38          	sub    $0x38,%rsp
  4013aa:	8b 05 20 1e 20 00    	mov    0x201e20(%rip),%eax        # 6031d0 <N>
  4013b0:	f3 0f 11 6c 24 0c    	movss  %xmm5,0xc(%rsp)
  4013b6:	8d 58 03             	lea    0x3(%rax),%ebx
  4013b9:	85 c0                	test   %eax,%eax
  4013bb:	0f 49 d8             	cmovns %eax,%ebx
  4013be:	31 c0                	xor    %eax,%eax
  4013c0:	83 e3 fc             	and    $0xfffffffc,%ebx
  4013c3:	e8 a8 ff ff ff       	callq  401370 <wtime>
  4013c8:	85 db                	test   %ebx,%ebx
  4013ca:	f2 0f 11 04 24       	movsd  %xmm0,(%rsp)
  4013cf:	f3 0f 10 6c 24 0c    	movss  0xc(%rsp),%xmm5
  4013d5:	0f 8e 43 05 00 00    	jle    40191e <compute+0x57e>
  4013db:	48 8b 05 fe 1d 20 00 	mov    0x201dfe(%rip),%rax        # 6031e0 <ax>
  4013e2:	83 eb 01             	sub    $0x1,%ebx
  4013e5:	c1 eb 02             	shr    $0x2,%ebx
  4013e8:	89 d9                	mov    %ebx,%ecx
  4013ea:	48 8d 50 10          	lea    0x10(%rax),%rdx
  4013ee:	48 c1 e1 04          	shl    $0x4,%rcx
  4013f2:	48 8d 34 0a          	lea    (%rdx,%rcx,1),%rsi
  4013f6:	eb 0c                	jmp    401404 <compute+0x64>
  4013f8:	0f 1f 84 00 00 00 00 	nopl   0x0(%rax,%rax,1)
  4013ff:	00 
  401400:	48 83 c2 10          	add    $0x10,%rdx
  401404:	48 39 f2             	cmp    %rsi,%rdx
  401407:	c7 00 00 00 00 00    	movl   $0x0,(%rax)
  40140d:	c7 40 04 00 00 00 00 	movl   $0x0,0x4(%rax)
  401414:	c7 40 08 00 00 00 00 	movl   $0x0,0x8(%rax)
  40141b:	c7 40 0c 00 00 00 00 	movl   $0x0,0xc(%rax)
  401422:	48 89 d0             	mov    %rdx,%rax
  401425:	75 d9                	jne    401400 <compute+0x60>
  401427:	48 8b 05 62 1d 20 00 	mov    0x201d62(%rip),%rax        # 603190 <ay>
  40142e:	48 8d 50 10          	lea    0x10(%rax),%rdx
  401432:	48 8d 34 11          	lea    (%rcx,%rdx,1),%rsi
  401436:	eb 0c                	jmp    401444 <compute+0xa4>
  401438:	0f 1f 84 00 00 00 00 	nopl   0x0(%rax,%rax,1)
  40143f:	00 
  401440:	48 83 c2 10          	add    $0x10,%rdx
  401444:	48 39 f2             	cmp    %rsi,%rdx
  401447:	c7 00 00 00 00 00    	movl   $0x0,(%rax)
  40144d:	c7 40 04 00 00 00 00 	movl   $0x0,0x4(%rax)
  401454:	c7 40 08 00 00 00 00 	movl   $0x0,0x8(%rax)
  40145b:	c7 40 0c 00 00 00 00 	movl   $0x0,0xc(%rax)
  401462:	48 89 d0             	mov    %rdx,%rax
  401465:	75 d9                	jne    401440 <compute+0xa0>
  401467:	48 8b 05 32 1d 20 00 	mov    0x201d32(%rip),%rax        # 6031a0 <az>
  40146e:	48 8d 50 10          	lea    0x10(%rax),%rdx
  401472:	48 01 d1             	add    %rdx,%rcx
  401475:	eb 0d                	jmp    401484 <compute+0xe4>
  401477:	66 0f 1f 84 00 00 00 	nopw   0x0(%rax,%rax,1)
  40147e:	00 00 
  401480:	48 83 c2 10          	add    $0x10,%rdx
  401484:	48 39 ca             	cmp    %rcx,%rdx
  401487:	c7 00 00 00 00 00    	movl   $0x0,(%rax)
  40148d:	c7 40 04 00 00 00 00 	movl   $0x0,0x4(%rax)
  401494:	c7 40 08 00 00 00 00 	movl   $0x0,0x8(%rax)
  40149b:	c7 40 0c 00 00 00 00 	movl   $0x0,0xc(%rax)
  4014a2:	48 89 d0             	mov    %rdx,%rax
  4014a5:	75 d9                	jne    401480 <compute+0xe0>
  4014a7:	8d 04 9d 04 00 00 00 	lea    0x4(,%rbx,4),%eax
  4014ae:	8b 15 1c 1d 20 00    	mov    0x201d1c(%rip),%edx        # 6031d0 <N>
  4014b4:	39 d0                	cmp    %edx,%eax
  4014b6:	7d 56                	jge    40150e <compute+0x16e>
  4014b8:	83 ea 01             	sub    $0x1,%edx
  4014bb:	29 c2                	sub    %eax,%edx
  4014bd:	48 98                	cltq   
  4014bf:	48 8d 3c 95 04 00 00 	lea    0x4(,%rdx,4),%rdi
  4014c6:	00 
  4014c7:	48 8d 14 85 00 00 00 	lea    0x0(,%rax,4),%rdx
  4014ce:	00 
  4014cf:	31 c0                	xor    %eax,%eax
  4014d1:	48 89 d6             	mov    %rdx,%rsi
  4014d4:	48 89 d1             	mov    %rdx,%rcx
  4014d7:	48 03 35 02 1d 20 00 	add    0x201d02(%rip),%rsi        # 6031e0 <ax>
  4014de:	48 03 0d ab 1c 20 00 	add    0x201cab(%rip),%rcx        # 603190 <ay>
  4014e5:	48 03 15 b4 1c 20 00 	add    0x201cb4(%rip),%rdx        # 6031a0 <az>
  4014ec:	0f 1f 40 00          	nopl   0x0(%rax)
  4014f0:	c7 04 06 00 00 00 00 	movl   $0x0,(%rsi,%rax,1)
  4014f7:	c7 04 01 00 00 00 00 	movl   $0x0,(%rcx,%rax,1)
  4014fe:	c7 04 02 00 00 00 00 	movl   $0x0,(%rdx,%rax,1)
  401505:	48 83 c0 04          	add    $0x4,%rax
  401509:	48 39 f8             	cmp    %rdi,%rax
  40150c:	75 e2                	jne    4014f0 <compute+0x150>
  40150e:	31 c0                	xor    %eax,%eax
  401510:	f3 0f 11 6c 24 0c    	movss  %xmm5,0xc(%rsp)
  401516:	e8 55 fe ff ff       	callq  401370 <wtime>
  40151b:	f2 0f 5c 04 24       	subsd  (%rsp),%xmm0
  401520:	31 c0                	xor    %eax,%eax
  401522:	f2 0f 58 05 56 1c 20 	addsd  0x201c56(%rip),%xmm0        # 603180 <l0>
  401529:	00 
  40152a:	f2 0f 11 05 4e 1c 20 	movsd  %xmm0,0x201c4e(%rip)        # 603180 <l0>
  401531:	00 
  401532:	e8 39 fe ff ff       	callq  401370 <wtime>
  401537:	8b 15 93 1c 20 00    	mov    0x201c93(%rip),%edx        # 6031d0 <N>
  40153d:	f2 0f 11 04 24       	movsd  %xmm0,(%rsp)
  401542:	f3 0f 10 6c 24 0c    	movss  0xc(%rsp),%xmm5
  401548:	85 d2                	test   %edx,%edx
  40154a:	0f 8e 3c 01 00 00    	jle    40168c <compute+0x2ec>
  401550:	45 0f 57 d2          	xorps  %xmm10,%xmm10
  401554:	31 ed                	xor    %ebp,%ebp
  401556:	45 31 ed             	xor    %r13d,%r13d
  401559:	f3 44 0f 10 0d c2 0f 	movss  0xfc2(%rip),%xmm9        # 402524 <_IO_stdin_used+0x1d4>
  401560:	00 00 
  401562:	66 0f 1f 44 00 00    	nopw   0x0(%rax,%rax,1)
  401568:	85 d2                	test   %edx,%edx
  40156a:	0f 8e 9d 03 00 00    	jle    40190d <compute+0x56d>
  401570:	45 0f 28 c2          	movaps %xmm10,%xmm8
  401574:	31 db                	xor    %ebx,%ebx
  401576:	41 0f 28 fa          	movaps %xmm10,%xmm7
  40157a:	41 0f 28 f2          	movaps %xmm10,%xmm6
  40157e:	66 90                	xchg   %ax,%ax
  401580:	48 8b 05 11 1c 20 00 	mov    0x201c11(%rip),%rax        # 603198 <x>
  401587:	4c 8d 24 9d 00 00 00 	lea    0x0(,%rbx,4),%r12
  40158e:	00 
  40158f:	f3 0f 10 1c 98       	movss  (%rax,%rbx,4),%xmm3
  401594:	f3 0f 5c 1c 28       	subss  (%rax,%rbp,1),%xmm3
  401599:	48 8b 05 18 1c 20 00 	mov    0x201c18(%rip),%rax        # 6031b8 <y>
  4015a0:	f3 0f 10 14 98       	movss  (%rax,%rbx,4),%xmm2
  4015a5:	f3 0f 5c 14 28       	subss  (%rax,%rbp,1),%xmm2
  4015aa:	48 8b 05 27 1c 20 00 	mov    0x201c27(%rip),%rax        # 6031d8 <z>
  4015b1:	0f 28 c3             	movaps %xmm3,%xmm0
  4015b4:	f3 0f 10 0c 98       	movss  (%rax,%rbx,4),%xmm1
  4015b9:	f3 0f 5c 0c 28       	subss  (%rax,%rbp,1),%xmm1
  4015be:	f3 0f 59 c3          	mulss  %xmm3,%xmm0
  4015c2:	0f 28 e2             	movaps %xmm2,%xmm4
  4015c5:	f3 0f 59 e2          	mulss  %xmm2,%xmm4
  4015c9:	f3 0f 58 c4          	addss  %xmm4,%xmm0
  4015cd:	0f 28 e1             	movaps %xmm1,%xmm4
  4015d0:	f3 0f 59 e1          	mulss  %xmm1,%xmm4
  4015d4:	f3 0f 58 c4          	addss  %xmm4,%xmm0
  4015d8:	f3 0f 58 05 70 1b 20 	addss  0x201b70(%rip),%xmm0        # 603150 <eps>
  4015df:	00 
  4015e0:	0f 14 c0             	unpcklps %xmm0,%xmm0
  4015e3:	0f 5a c0             	cvtps2pd %xmm0,%xmm0
  4015e6:	f2 0f 51 e0          	sqrtsd %xmm0,%xmm4
  4015ea:	66 0f 2e e4          	ucomisd %xmm4,%xmm4
  4015ee:	0f 8a 31 03 00 00    	jp     401925 <compute+0x585>
  4015f4:	0f 14 ed             	unpcklps %xmm5,%xmm5
  4015f7:	48 8b 05 b2 1b 20 00 	mov    0x201bb2(%rip),%rax        # 6031b0 <m>
  4015fe:	0f 5a c5             	cvtps2pd %xmm5,%xmm0
  401601:	f2 0f 59 c4          	mulsd  %xmm4,%xmm0
  401605:	f2 0f 12 e8          	movddup %xmm0,%xmm5
  401609:	41 0f 28 c1          	movaps %xmm9,%xmm0
  40160d:	66 0f 5a ed          	cvtpd2ps %xmm5,%xmm5
  401611:	f3 0f 5e c5          	divss  %xmm5,%xmm0
  401615:	f3 42 0f 59 04 20    	mulss  (%rax,%r12,1),%xmm0
  40161b:	8d 43 01             	lea    0x1(%rbx),%eax
  40161e:	48 83 c3 01          	add    $0x1,%rbx
  401622:	39 c2                	cmp    %eax,%edx
  401624:	f3 0f 59 d8          	mulss  %xmm0,%xmm3
  401628:	f3 0f 59 d0          	mulss  %xmm0,%xmm2
  40162c:	f3 0f 59 c8          	mulss  %xmm0,%xmm1
  401630:	f3 0f 58 f3          	addss  %xmm3,%xmm6
  401634:	f3 0f 58 fa          	addss  %xmm2,%xmm7
  401638:	f3 44 0f 58 c1       	addss  %xmm1,%xmm8
  40163d:	0f 8f 3d ff ff ff    	jg     401580 <compute+0x1e0>
  401643:	48 89 e8             	mov    %rbp,%rax
  401646:	48 03 05 93 1b 20 00 	add    0x201b93(%rip),%rax        # 6031e0 <ax>
  40164d:	41 83 c5 01          	add    $0x1,%r13d
  401651:	f3 0f 58 30          	addss  (%rax),%xmm6
  401655:	f3 0f 11 30          	movss  %xmm6,(%rax)
  401659:	48 89 e8             	mov    %rbp,%rax
  40165c:	48 03 05 2d 1b 20 00 	add    0x201b2d(%rip),%rax        # 603190 <ay>
  401663:	f3 0f 58 38          	addss  (%rax),%xmm7
  401667:	f3 0f 11 38          	movss  %xmm7,(%rax)
  40166b:	48 89 e8             	mov    %rbp,%rax
  40166e:	48 03 05 2b 1b 20 00 	add    0x201b2b(%rip),%rax        # 6031a0 <az>
  401675:	48 83 c5 04          	add    $0x4,%rbp
  401679:	41 39 d5             	cmp    %edx,%r13d
  40167c:	f3 44 0f 58 00       	addss  (%rax),%xmm8
  401681:	f3 44 0f 11 00       	movss  %xmm8,(%rax)
  401686:	0f 8c dc fe ff ff    	jl     401568 <compute+0x1c8>
  40168c:	31 c0                	xor    %eax,%eax
  40168e:	e8 dd fc ff ff       	callq  401370 <wtime>
  401693:	f2 0f 5c 04 24       	subsd  (%rsp),%xmm0
  401698:	31 c0                	xor    %eax,%eax
  40169a:	f2 0f 58 05 d6 1a 20 	addsd  0x201ad6(%rip),%xmm0        # 603178 <l1>
  4016a1:	00 
  4016a2:	f2 0f 11 05 ce 1a 20 	movsd  %xmm0,0x201ace(%rip)        # 603178 <l1>
  4016a9:	00 
  4016aa:	e8 c1 fc ff ff       	callq  401370 <wtime>
  4016af:	8b 3d 1b 1b 20 00    	mov    0x201b1b(%rip),%edi        # 6031d0 <N>
  4016b5:	f2 0f 11 04 24       	movsd  %xmm0,(%rsp)
  4016ba:	85 ff                	test   %edi,%edi
  4016bc:	0f 8e 96 00 00 00    	jle    401758 <compute+0x3b8>
  4016c2:	48 8b 35 df 1a 20 00 	mov    0x201adf(%rip),%rsi        # 6031a8 <vx>
  4016c9:	4c 8b 15 10 1b 20 00 	mov    0x201b10(%rip),%r10        # 6031e0 <ax>
  4016d0:	31 c0                	xor    %eax,%eax
  4016d2:	48 8b 0d ef 1a 20 00 	mov    0x201aef(%rip),%rcx        # 6031c8 <vy>
  4016d9:	4c 8b 0d b0 1a 20 00 	mov    0x201ab0(%rip),%r9        # 603190 <ay>
  4016e0:	48 8b 15 01 1b 20 00 	mov    0x201b01(%rip),%rdx        # 6031e8 <vz>
  4016e7:	4c 8b 05 b2 1a 20 00 	mov    0x201ab2(%rip),%r8        # 6031a0 <az>
  4016ee:	66 90                	xchg   %ax,%ax
  4016f0:	f3 41 0f 10 04 82    	movss  (%r10,%rax,4),%xmm0
  4016f6:	f3 0f 59 05 4a 1a 20 	mulss  0x201a4a(%rip),%xmm0        # 603148 <dt>
  4016fd:	00 
  4016fe:	f3 0f 59 05 46 1a 20 	mulss  0x201a46(%rip),%xmm0        # 60314c <dmp>
  401705:	00 
  401706:	f3 0f 58 04 86       	addss  (%rsi,%rax,4),%xmm0
  40170b:	f3 0f 11 04 86       	movss  %xmm0,(%rsi,%rax,4)
  401710:	f3 41 0f 10 04 81    	movss  (%r9,%rax,4),%xmm0
  401716:	f3 0f 59 05 2a 1a 20 	mulss  0x201a2a(%rip),%xmm0        # 603148 <dt>
  40171d:	00 
  40171e:	f3 0f 59 05 26 1a 20 	mulss  0x201a26(%rip),%xmm0        # 60314c <dmp>
  401725:	00 
  401726:	f3 0f 58 04 81       	addss  (%rcx,%rax,4),%xmm0
  40172b:	f3 0f 11 04 81       	movss  %xmm0,(%rcx,%rax,4)
  401730:	f3 41 0f 10 04 80    	movss  (%r8,%rax,4),%xmm0
  401736:	f3 0f 59 05 0a 1a 20 	mulss  0x201a0a(%rip),%xmm0        # 603148 <dt>
  40173d:	00 
  40173e:	f3 0f 59 05 06 1a 20 	mulss  0x201a06(%rip),%xmm0        # 60314c <dmp>
  401745:	00 
  401746:	f3 0f 58 04 82       	addss  (%rdx,%rax,4),%xmm0
  40174b:	f3 0f 11 04 82       	movss  %xmm0,(%rdx,%rax,4)
  401750:	48 83 c0 01          	add    $0x1,%rax
  401754:	39 c7                	cmp    %eax,%edi
  401756:	7f 98                	jg     4016f0 <compute+0x350>
  401758:	31 c0                	xor    %eax,%eax
  40175a:	e8 11 fc ff ff       	callq  401370 <wtime>
  40175f:	f2 0f 5c 04 24       	subsd  (%rsp),%xmm0
  401764:	31 c0                	xor    %eax,%eax
  401766:	f2 0f 58 05 02 1a 20 	addsd  0x201a02(%rip),%xmm0        # 603170 <l2>
  40176d:	00 
  40176e:	f2 0f 11 05 fa 19 20 	movsd  %xmm0,0x2019fa(%rip)        # 603170 <l2>
  401775:	00 
  401776:	e8 f5 fb ff ff       	callq  401370 <wtime>
  40177b:	44 8b 15 4e 1a 20 00 	mov    0x201a4e(%rip),%r10d        # 6031d0 <N>
  401782:	f2 0f 11 04 24       	movsd  %xmm0,(%rsp)
  401787:	45 85 d2             	test   %r10d,%r10d
  40178a:	0f 8e 56 01 00 00    	jle    4018e6 <compute+0x546>
  401790:	f3 0f 10 15 78 0d 00 	movss  0xd78(%rip),%xmm2        # 402510 <_IO_stdin_used+0x1c0>
  401797:	00 
  401798:	f3 0f 10 2d 88 0d 00 	movss  0xd88(%rip),%xmm5        # 402528 <_IO_stdin_used+0x1d8>
  40179f:	00 
  4017a0:	48 8b 35 f1 19 20 00 	mov    0x2019f1(%rip),%rsi        # 603198 <x>
  4017a7:	4c 8b 0d fa 19 20 00 	mov    0x2019fa(%rip),%r9        # 6031a8 <vx>
  4017ae:	31 c0                	xor    %eax,%eax
  4017b0:	48 8b 0d 01 1a 20 00 	mov    0x201a01(%rip),%rcx        # 6031b8 <y>
  4017b7:	4c 8b 05 0a 1a 20 00 	mov    0x201a0a(%rip),%r8        # 6031c8 <vy>
  4017be:	48 8b 15 13 1a 20 00 	mov    0x201a13(%rip),%rdx        # 6031d8 <z>
  4017c5:	48 8b 3d 1c 1a 20 00 	mov    0x201a1c(%rip),%rdi        # 6031e8 <vz>
  4017cc:	f3 0f 10 0d 50 0d 00 	movss  0xd50(%rip),%xmm1        # 402524 <_IO_stdin_used+0x1d4>
  4017d3:	00 
  4017d4:	0f 28 e2             	movaps %xmm2,%xmm4
  4017d7:	0f 28 fd             	movaps %xmm5,%xmm7
  4017da:	0f 28 da             	movaps %xmm2,%xmm3
  4017dd:	0f 28 f5             	movaps %xmm5,%xmm6
  4017e0:	eb 5a                	jmp    40183c <compute+0x49c>
  4017e2:	66 0f 1f 44 00 00    	nopw   0x0(%rax,%rax,1)
  4017e8:	f3 41 0f 10 04 81    	movss  (%r9,%rax,4),%xmm0
  4017ee:	0f 57 c2             	xorps  %xmm2,%xmm0
  4017f1:	f3 41 0f 11 04 81    	movss  %xmm0,(%r9,%rax,4)
  4017f7:	f3 0f 10 04 81       	movss  (%rcx,%rax,4),%xmm0
  4017fc:	0f 2e c1             	ucomiss %xmm1,%xmm0
  4017ff:	0f 82 ab 00 00 00    	jb     4018b0 <compute+0x510>
  401805:	f3 41 0f 10 04 80    	movss  (%r8,%rax,4),%xmm0
  40180b:	0f 57 c4             	xorps  %xmm4,%xmm0
  40180e:	f3 41 0f 11 04 80    	movss  %xmm0,(%r8,%rax,4)
  401814:	f3 0f 10 04 82       	movss  (%rdx,%rax,4),%xmm0
  401819:	0f 2e c1             	ucomiss %xmm1,%xmm0
  40181c:	0f 82 ae 00 00 00    	jb     4018d0 <compute+0x530>
  401822:	f3 0f 10 04 87       	movss  (%rdi,%rax,4),%xmm0
  401827:	0f 57 c3             	xorps  %xmm3,%xmm0
  40182a:	f3 0f 11 04 87       	movss  %xmm0,(%rdi,%rax,4)
  40182f:	48 83 c0 01          	add    $0x1,%rax
  401833:	41 39 c2             	cmp    %eax,%r10d
  401836:	0f 8e aa 00 00 00    	jle    4018e6 <compute+0x546>
  40183c:	f3 41 0f 10 04 81    	movss  (%r9,%rax,4),%xmm0
  401842:	f3 0f 59 05 fe 18 20 	mulss  0x2018fe(%rip),%xmm0        # 603148 <dt>
  401849:	00 
  40184a:	f3 0f 58 04 86       	addss  (%rsi,%rax,4),%xmm0
  40184f:	f3 0f 11 04 86       	movss  %xmm0,(%rsi,%rax,4)
  401854:	f3 41 0f 10 04 80    	movss  (%r8,%rax,4),%xmm0
  40185a:	f3 0f 59 05 e6 18 20 	mulss  0x2018e6(%rip),%xmm0        # 603148 <dt>
  401861:	00 
  401862:	f3 0f 58 04 81       	addss  (%rcx,%rax,4),%xmm0
  401867:	f3 0f 11 04 81       	movss  %xmm0,(%rcx,%rax,4)
  40186c:	f3 0f 10 04 87       	movss  (%rdi,%rax,4),%xmm0
  401871:	f3 0f 59 05 cf 18 20 	mulss  0x2018cf(%rip),%xmm0        # 603148 <dt>
  401878:	00 
  401879:	f3 0f 58 04 82       	addss  (%rdx,%rax,4),%xmm0
  40187e:	f3 0f 11 04 82       	movss  %xmm0,(%rdx,%rax,4)
  401883:	f3 0f 10 04 86       	movss  (%rsi,%rax,4),%xmm0
  401888:	0f 2e c1             	ucomiss %xmm1,%xmm0
  40188b:	0f 83 57 ff ff ff    	jae    4017e8 <compute+0x448>
  401891:	0f 2e e8             	ucomiss %xmm0,%xmm5
  401894:	0f 83 4e ff ff ff    	jae    4017e8 <compute+0x448>
  40189a:	f3 0f 10 04 81       	movss  (%rcx,%rax,4),%xmm0
  40189f:	0f 2e c1             	ucomiss %xmm1,%xmm0
  4018a2:	0f 83 5d ff ff ff    	jae    401805 <compute+0x465>
  4018a8:	0f 1f 84 00 00 00 00 	nopl   0x0(%rax,%rax,1)
  4018af:	00 
  4018b0:	0f 2e f8             	ucomiss %xmm0,%xmm7
  4018b3:	0f 83 4c ff ff ff    	jae    401805 <compute+0x465>
  4018b9:	f3 0f 10 04 82       	movss  (%rdx,%rax,4),%xmm0
  4018be:	0f 2e c1             	ucomiss %xmm1,%xmm0
  4018c1:	0f 83 5b ff ff ff    	jae    401822 <compute+0x482>
  4018c7:	66 0f 1f 84 00 00 00 	nopw   0x0(%rax,%rax,1)
  4018ce:	00 00 
  4018d0:	0f 2e f0             	ucomiss %xmm0,%xmm6
  4018d3:	0f 83 49 ff ff ff    	jae    401822 <compute+0x482>
  4018d9:	48 83 c0 01          	add    $0x1,%rax
  4018dd:	41 39 c2             	cmp    %eax,%r10d
  4018e0:	0f 8f 56 ff ff ff    	jg     40183c <compute+0x49c>
  4018e6:	31 c0                	xor    %eax,%eax
  4018e8:	e8 83 fa ff ff       	callq  401370 <wtime>
  4018ed:	f2 0f 5c 04 24       	subsd  (%rsp),%xmm0
  4018f2:	f2 0f 58 05 6e 18 20 	addsd  0x20186e(%rip),%xmm0        # 603168 <l3>
  4018f9:	00 
  4018fa:	f2 0f 11 05 66 18 20 	movsd  %xmm0,0x201866(%rip)        # 603168 <l3>
  401901:	00 
  401902:	48 83 c4 38          	add    $0x38,%rsp
  401906:	5b                   	pop    %rbx
  401907:	5d                   	pop    %rbp
  401908:	41 5c                	pop    %r12
  40190a:	41 5d                	pop    %r13
  40190c:	c3                   	retq   
  40190d:	45 0f 28 c2          	movaps %xmm10,%xmm8
  401911:	41 0f 28 fa          	movaps %xmm10,%xmm7
  401915:	41 0f 28 f2          	movaps %xmm10,%xmm6
  401919:	e9 25 fd ff ff       	jmpq   401643 <compute+0x2a3>
  40191e:	31 c0                	xor    %eax,%eax
  401920:	e9 89 fb ff ff       	jmpq   4014ae <compute+0x10e>
  401925:	f3 44 0f 11 4c 24 2c 	movss  %xmm9,0x2c(%rsp)
  40192c:	f3 44 0f 11 54 24 28 	movss  %xmm10,0x28(%rsp)
  401933:	f3 44 0f 11 44 24 24 	movss  %xmm8,0x24(%rsp)
  40193a:	f3 0f 11 7c 24 20    	movss  %xmm7,0x20(%rsp)
  401940:	f3 0f 11 74 24 1c    	movss  %xmm6,0x1c(%rsp)
  401946:	f3 0f 11 6c 24 18    	movss  %xmm5,0x18(%rsp)
  40194c:	f3 0f 11 4c 24 14    	movss  %xmm1,0x14(%rsp)
  401952:	f3 0f 11 54 24 10    	movss  %xmm2,0x10(%rsp)
  401958:	f3 0f 11 5c 24 0c    	movss  %xmm3,0xc(%rsp)
  40195e:	e8 7d f6 ff ff       	callq  400fe0 <sqrt@plt>
  401963:	8b 15 67 18 20 00    	mov    0x201867(%rip),%edx        # 6031d0 <N>
  401969:	66 0f 28 e0          	movapd %xmm0,%xmm4
  40196d:	f3 44 0f 10 4c 24 2c 	movss  0x2c(%rsp),%xmm9
  401974:	f3 44 0f 10 54 24 28 	movss  0x28(%rsp),%xmm10
  40197b:	f3 44 0f 10 44 24 24 	movss  0x24(%rsp),%xmm8
  401982:	f3 0f 10 7c 24 20    	movss  0x20(%rsp),%xmm7
  401988:	f3 0f 10 74 24 1c    	movss  0x1c(%rsp),%xmm6
  40198e:	f3 0f 10 6c 24 18    	movss  0x18(%rsp),%xmm5
  401994:	f3 0f 10 4c 24 14    	movss  0x14(%rsp),%xmm1
  40199a:	f3 0f 10 54 24 10    	movss  0x10(%rsp),%xmm2
  4019a0:	f3 0f 10 5c 24 0c    	movss  0xc(%rsp),%xmm3
  4019a6:	e9 49 fc ff ff       	jmpq   4015f4 <compute+0x254>
  4019ab:	0f 1f 44 00 00       	nopl   0x0(%rax,%rax,1)

00000000004019b0 <init>:
  4019b0:	41 55                	push   %r13
  4019b2:	be 10 00 00 00       	mov    $0x10,%esi
  4019b7:	41 54                	push   %r12
  4019b9:	55                   	push   %rbp
  4019ba:	53                   	push   %rbx
  4019bb:	48 83 ec 18          	sub    $0x18,%rsp
  4019bf:	48 63 15 0a 18 20 00 	movslq 0x20180a(%rip),%rdx        # 6031d0 <N>
  4019c6:	48 8d 7c 24 08       	lea    0x8(%rsp),%rdi
  4019cb:	48 c1 e2 02          	shl    $0x2,%rdx
  4019cf:	e8 2c f4 ff ff       	callq  400e00 <posix_memalign@plt>
  4019d4:	85 c0                	test   %eax,%eax
  4019d6:	0f 85 60 04 00 00    	jne    401e3c <init+0x48c>
  4019dc:	48 8b 44 24 08       	mov    0x8(%rsp),%rax
  4019e1:	48 63 15 e8 17 20 00 	movslq 0x2017e8(%rip),%rdx        # 6031d0 <N>
  4019e8:	48 8d 7c 24 08       	lea    0x8(%rsp),%rdi
  4019ed:	be 10 00 00 00       	mov    $0x10,%esi
  4019f2:	48 89 05 9f 17 20 00 	mov    %rax,0x20179f(%rip)        # 603198 <x>
  4019f9:	48 c1 e2 02          	shl    $0x2,%rdx
  4019fd:	e8 fe f3 ff ff       	callq  400e00 <posix_memalign@plt>
  401a02:	85 c0                	test   %eax,%eax
  401a04:	0f 85 39 04 00 00    	jne    401e43 <init+0x493>
  401a0a:	48 8b 44 24 08       	mov    0x8(%rsp),%rax
  401a0f:	48 63 15 ba 17 20 00 	movslq 0x2017ba(%rip),%rdx        # 6031d0 <N>
  401a16:	48 8d 7c 24 08       	lea    0x8(%rsp),%rdi
  401a1b:	be 10 00 00 00       	mov    $0x10,%esi
  401a20:	48 89 05 91 17 20 00 	mov    %rax,0x201791(%rip)        # 6031b8 <y>
  401a27:	48 c1 e2 02          	shl    $0x2,%rdx
  401a2b:	e8 d0 f3 ff ff       	callq  400e00 <posix_memalign@plt>
  401a30:	85 c0                	test   %eax,%eax
  401a32:	0f 85 12 04 00 00    	jne    401e4a <init+0x49a>
  401a38:	48 8b 44 24 08       	mov    0x8(%rsp),%rax
  401a3d:	48 63 15 8c 17 20 00 	movslq 0x20178c(%rip),%rdx        # 6031d0 <N>
  401a44:	48 8d 7c 24 08       	lea    0x8(%rsp),%rdi
  401a49:	be 10 00 00 00       	mov    $0x10,%esi
  401a4e:	48 89 05 83 17 20 00 	mov    %rax,0x201783(%rip)        # 6031d8 <z>
  401a55:	48 c1 e2 02          	shl    $0x2,%rdx
  401a59:	e8 a2 f3 ff ff       	callq  400e00 <posix_memalign@plt>
  401a5e:	85 c0                	test   %eax,%eax
  401a60:	0f 85 ef 03 00 00    	jne    401e55 <init+0x4a5>
  401a66:	48 8b 44 24 08       	mov    0x8(%rsp),%rax
  401a6b:	48 63 15 5e 17 20 00 	movslq 0x20175e(%rip),%rdx        # 6031d0 <N>
  401a72:	48 8d 7c 24 08       	lea    0x8(%rsp),%rdi
  401a77:	be 10 00 00 00       	mov    $0x10,%esi
  401a7c:	48 89 05 5d 17 20 00 	mov    %rax,0x20175d(%rip)        # 6031e0 <ax>
  401a83:	48 c1 e2 02          	shl    $0x2,%rdx
  401a87:	e8 74 f3 ff ff       	callq  400e00 <posix_memalign@plt>
  401a8c:	85 c0                	test   %eax,%eax
  401a8e:	0f 85 c8 03 00 00    	jne    401e5c <init+0x4ac>
  401a94:	48 8b 44 24 08       	mov    0x8(%rsp),%rax
  401a99:	48 63 15 30 17 20 00 	movslq 0x201730(%rip),%rdx        # 6031d0 <N>
  401aa0:	48 8d 7c 24 08       	lea    0x8(%rsp),%rdi
  401aa5:	be 10 00 00 00       	mov    $0x10,%esi
  401aaa:	48 89 05 df 16 20 00 	mov    %rax,0x2016df(%rip)        # 603190 <ay>
  401ab1:	48 c1 e2 02          	shl    $0x2,%rdx
  401ab5:	e8 46 f3 ff ff       	callq  400e00 <posix_memalign@plt>
  401aba:	85 c0                	test   %eax,%eax
  401abc:	0f 85 a3 03 00 00    	jne    401e65 <init+0x4b5>
  401ac2:	48 8b 44 24 08       	mov    0x8(%rsp),%rax
  401ac7:	48 63 15 02 17 20 00 	movslq 0x201702(%rip),%rdx        # 6031d0 <N>
  401ace:	48 8d 7c 24 08       	lea    0x8(%rsp),%rdi
  401ad3:	be 10 00 00 00       	mov    $0x10,%esi
  401ad8:	48 89 05 c1 16 20 00 	mov    %rax,0x2016c1(%rip)        # 6031a0 <az>
  401adf:	48 c1 e2 02          	shl    $0x2,%rdx
  401ae3:	e8 18 f3 ff ff       	callq  400e00 <posix_memalign@plt>
  401ae8:	85 c0                	test   %eax,%eax
  401aea:	0f 85 7c 03 00 00    	jne    401e6c <init+0x4bc>
  401af0:	48 8b 44 24 08       	mov    0x8(%rsp),%rax
  401af5:	48 63 15 d4 16 20 00 	movslq 0x2016d4(%rip),%rdx        # 6031d0 <N>
  401afc:	48 8d 7c 24 08       	lea    0x8(%rsp),%rdi
  401b01:	be 10 00 00 00       	mov    $0x10,%esi
  401b06:	48 89 05 9b 16 20 00 	mov    %rax,0x20169b(%rip)        # 6031a8 <vx>
  401b0d:	48 c1 e2 02          	shl    $0x2,%rdx
  401b11:	e8 ea f2 ff ff       	callq  400e00 <posix_memalign@plt>
  401b16:	85 c0                	test   %eax,%eax
  401b18:	0f 85 57 03 00 00    	jne    401e75 <init+0x4c5>
  401b1e:	48 8b 44 24 08       	mov    0x8(%rsp),%rax
  401b23:	48 63 15 a6 16 20 00 	movslq 0x2016a6(%rip),%rdx        # 6031d0 <N>
  401b2a:	48 8d 7c 24 08       	lea    0x8(%rsp),%rdi
  401b2f:	be 10 00 00 00       	mov    $0x10,%esi
  401b34:	48 89 05 8d 16 20 00 	mov    %rax,0x20168d(%rip)        # 6031c8 <vy>
  401b3b:	48 c1 e2 02          	shl    $0x2,%rdx
  401b3f:	e8 bc f2 ff ff       	callq  400e00 <posix_memalign@plt>
  401b44:	85 c0                	test   %eax,%eax
  401b46:	0f 85 30 03 00 00    	jne    401e7c <init+0x4cc>
  401b4c:	48 8b 44 24 08       	mov    0x8(%rsp),%rax
  401b51:	48 63 15 78 16 20 00 	movslq 0x201678(%rip),%rdx        # 6031d0 <N>
  401b58:	48 8d 7c 24 08       	lea    0x8(%rsp),%rdi
  401b5d:	be 10 00 00 00       	mov    $0x10,%esi
  401b62:	48 89 05 7f 16 20 00 	mov    %rax,0x20167f(%rip)        # 6031e8 <vz>
  401b69:	48 c1 e2 02          	shl    $0x2,%rdx
  401b6d:	e8 8e f2 ff ff       	callq  400e00 <posix_memalign@plt>
  401b72:	85 c0                	test   %eax,%eax
  401b74:	0f 85 bb 02 00 00    	jne    401e35 <init+0x485>
  401b7a:	48 8b 44 24 08       	mov    0x8(%rsp),%rax
  401b7f:	48 89 05 2a 16 20 00 	mov    %rax,0x20162a(%rip)        # 6031b0 <m>
  401b86:	8b 05 44 16 20 00    	mov    0x201644(%rip),%eax        # 6031d0 <N>
  401b8c:	31 ed                	xor    %ebp,%ebp
  401b8e:	31 db                	xor    %ebx,%ebx
  401b90:	45 31 e4             	xor    %r12d,%r12d
  401b93:	8d 3c 40             	lea    (%rax,%rax,2),%edi
  401b96:	48 63 ff             	movslq %edi,%rdi
  401b99:	48 c1 e7 02          	shl    $0x2,%rdi
  401b9d:	e8 fe f2 ff ff       	callq  400ea0 <malloc@plt>
  401ba2:	bf 2a 00 00 00       	mov    $0x2a,%edi
  401ba7:	48 89 05 42 16 20 00 	mov    %rax,0x201642(%rip)        # 6031f0 <c>
  401bae:	e8 cd f3 ff ff       	callq  400f80 <srand@plt>
  401bb3:	8b 15 17 16 20 00    	mov    0x201617(%rip),%edx        # 6031d0 <N>
  401bb9:	85 d2                	test   %edx,%edx
  401bbb:	0f 8e e0 01 00 00    	jle    401da1 <init+0x3f1>
  401bc1:	0f 1f 80 00 00 00 00 	nopl   0x0(%rax)
  401bc8:	49 89 dd             	mov    %rbx,%r13
  401bcb:	4c 03 2d c6 15 20 00 	add    0x2015c6(%rip),%r13        # 603198 <x>
  401bd2:	41 83 c4 01          	add    $0x1,%r12d
  401bd6:	e8 f5 f3 ff ff       	callq  400fd0 <rand@plt>
  401bdb:	f3 0f 2a c0          	cvtsi2ss %eax,%xmm0
  401bdf:	f3 0f 59 05 45 09 00 	mulss  0x945(%rip),%xmm0        # 40252c <_IO_stdin_used+0x1dc>
  401be6:	00 
  401be7:	f3 0f 58 c0          	addss  %xmm0,%xmm0
  401beb:	f3 0f 5c 05 31 09 00 	subss  0x931(%rip),%xmm0        # 402524 <_IO_stdin_used+0x1d4>
  401bf2:	00 
  401bf3:	f3 41 0f 11 45 00    	movss  %xmm0,0x0(%r13)
  401bf9:	49 89 dd             	mov    %rbx,%r13
  401bfc:	4c 03 2d b5 15 20 00 	add    0x2015b5(%rip),%r13        # 6031b8 <y>
  401c03:	e8 c8 f3 ff ff       	callq  400fd0 <rand@plt>
  401c08:	f3 0f 2a c0          	cvtsi2ss %eax,%xmm0
  401c0c:	f3 0f 59 05 18 09 00 	mulss  0x918(%rip),%xmm0        # 40252c <_IO_stdin_used+0x1dc>
  401c13:	00 
  401c14:	f3 0f 58 c0          	addss  %xmm0,%xmm0
  401c18:	f3 0f 5c 05 04 09 00 	subss  0x904(%rip),%xmm0        # 402524 <_IO_stdin_used+0x1d4>
  401c1f:	00 
  401c20:	f3 41 0f 11 45 00    	movss  %xmm0,0x0(%r13)
  401c26:	49 89 dd             	mov    %rbx,%r13
  401c29:	4c 03 2d a8 15 20 00 	add    0x2015a8(%rip),%r13        # 6031d8 <z>
  401c30:	e8 9b f3 ff ff       	callq  400fd0 <rand@plt>
  401c35:	f3 0f 2a c0          	cvtsi2ss %eax,%xmm0
  401c39:	48 8b 05 a0 15 20 00 	mov    0x2015a0(%rip),%rax        # 6031e0 <ax>
  401c40:	f3 0f 59 05 e4 08 00 	mulss  0x8e4(%rip),%xmm0        # 40252c <_IO_stdin_used+0x1dc>
  401c47:	00 
  401c48:	f3 0f 58 c0          	addss  %xmm0,%xmm0
  401c4c:	f3 0f 5c 05 d0 08 00 	subss  0x8d0(%rip),%xmm0        # 402524 <_IO_stdin_used+0x1d4>
  401c53:	00 
  401c54:	f3 41 0f 11 45 00    	movss  %xmm0,0x0(%r13)
  401c5a:	c7 04 18 00 00 00 00 	movl   $0x0,(%rax,%rbx,1)
  401c61:	48 8b 05 28 15 20 00 	mov    0x201528(%rip),%rax        # 603190 <ay>
  401c68:	49 89 dd             	mov    %rbx,%r13
  401c6b:	4c 03 2d 36 15 20 00 	add    0x201536(%rip),%r13        # 6031a8 <vx>
  401c72:	c7 04 18 00 00 00 00 	movl   $0x0,(%rax,%rbx,1)
  401c79:	48 8b 05 20 15 20 00 	mov    0x201520(%rip),%rax        # 6031a0 <az>
  401c80:	c7 04 18 00 00 00 00 	movl   $0x0,(%rax,%rbx,1)
  401c87:	e8 44 f3 ff ff       	callq  400fd0 <rand@plt>
  401c8c:	f3 0f 2a c0          	cvtsi2ss %eax,%xmm0
  401c90:	f3 0f 59 05 94 08 00 	mulss  0x894(%rip),%xmm0        # 40252c <_IO_stdin_used+0x1dc>
  401c97:	00 
  401c98:	f3 0f 58 c0          	addss  %xmm0,%xmm0
  401c9c:	f3 0f 5c 05 80 08 00 	subss  0x880(%rip),%xmm0        # 402524 <_IO_stdin_used+0x1d4>
  401ca3:	00 
  401ca4:	f3 41 0f 11 45 00    	movss  %xmm0,0x0(%r13)
  401caa:	49 89 dd             	mov    %rbx,%r13
  401cad:	4c 03 2d 14 15 20 00 	add    0x201514(%rip),%r13        # 6031c8 <vy>
  401cb4:	e8 17 f3 ff ff       	callq  400fd0 <rand@plt>
  401cb9:	f3 0f 2a c0          	cvtsi2ss %eax,%xmm0
  401cbd:	f3 0f 59 05 67 08 00 	mulss  0x867(%rip),%xmm0        # 40252c <_IO_stdin_used+0x1dc>
  401cc4:	00 
  401cc5:	f3 0f 58 c0          	addss  %xmm0,%xmm0
  401cc9:	f3 0f 5c 05 53 08 00 	subss  0x853(%rip),%xmm0        # 402524 <_IO_stdin_used+0x1d4>
  401cd0:	00 
  401cd1:	f3 41 0f 11 45 00    	movss  %xmm0,0x0(%r13)
  401cd7:	49 89 dd             	mov    %rbx,%r13
  401cda:	4c 03 2d 07 15 20 00 	add    0x201507(%rip),%r13        # 6031e8 <vz>
  401ce1:	e8 ea f2 ff ff       	callq  400fd0 <rand@plt>
  401ce6:	f3 0f 2a c0          	cvtsi2ss %eax,%xmm0
  401cea:	f3 0f 59 05 3a 08 00 	mulss  0x83a(%rip),%xmm0        # 40252c <_IO_stdin_used+0x1dc>
  401cf1:	00 
  401cf2:	f3 0f 58 c0          	addss  %xmm0,%xmm0
  401cf6:	f3 0f 5c 05 26 08 00 	subss  0x826(%rip),%xmm0        # 402524 <_IO_stdin_used+0x1d4>
  401cfd:	00 
  401cfe:	f3 41 0f 11 45 00    	movss  %xmm0,0x0(%r13)
  401d04:	49 89 dd             	mov    %rbx,%r13
  401d07:	4c 03 2d a2 14 20 00 	add    0x2014a2(%rip),%r13        # 6031b0 <m>
  401d0e:	48 83 c3 04          	add    $0x4,%rbx
  401d12:	e8 b9 f2 ff ff       	callq  400fd0 <rand@plt>
  401d17:	f3 0f 2a c0          	cvtsi2ss %eax,%xmm0
  401d1b:	f3 0f 59 05 09 08 00 	mulss  0x809(%rip),%xmm0        # 40252c <_IO_stdin_used+0x1dc>
  401d22:	00 
  401d23:	f3 41 0f 11 45 00    	movss  %xmm0,0x0(%r13)
  401d29:	49 89 ed             	mov    %rbp,%r13
  401d2c:	4c 03 2d bd 14 20 00 	add    0x2014bd(%rip),%r13        # 6031f0 <c>
  401d33:	e8 98 f2 ff ff       	callq  400fd0 <rand@plt>
  401d38:	f3 0f 2a c0          	cvtsi2ss %eax,%xmm0
  401d3c:	48 8b 05 ad 14 20 00 	mov    0x2014ad(%rip),%rax        # 6031f0 <c>
  401d43:	f3 0f 59 05 e1 07 00 	mulss  0x7e1(%rip),%xmm0        # 40252c <_IO_stdin_used+0x1dc>
  401d4a:	00 
  401d4b:	f3 41 0f 11 45 00    	movss  %xmm0,0x0(%r13)
  401d51:	4c 8d 6c 28 04       	lea    0x4(%rax,%rbp,1),%r13
  401d56:	e8 75 f2 ff ff       	callq  400fd0 <rand@plt>
  401d5b:	f3 0f 2a c0          	cvtsi2ss %eax,%xmm0
  401d5f:	48 8b 05 8a 14 20 00 	mov    0x20148a(%rip),%rax        # 6031f0 <c>
  401d66:	f3 0f 59 05 be 07 00 	mulss  0x7be(%rip),%xmm0        # 40252c <_IO_stdin_used+0x1dc>
  401d6d:	00 
  401d6e:	f3 41 0f 11 45 00    	movss  %xmm0,0x0(%r13)
  401d74:	4c 8d 6c 28 08       	lea    0x8(%rax,%rbp,1),%r13
  401d79:	48 83 c5 0c          	add    $0xc,%rbp
  401d7d:	e8 4e f2 ff ff       	callq  400fd0 <rand@plt>
  401d82:	f3 0f 2a c0          	cvtsi2ss %eax,%xmm0
  401d86:	44 39 25 43 14 20 00 	cmp    %r12d,0x201443(%rip)        # 6031d0 <N>
  401d8d:	f3 0f 59 05 97 07 00 	mulss  0x797(%rip),%xmm0        # 40252c <_IO_stdin_used+0x1dc>
  401d94:	00 
  401d95:	f3 41 0f 11 45 00    	movss  %xmm0,0x0(%r13)
  401d9b:	0f 8f 27 fe ff ff    	jg     401bc8 <init+0x218>
  401da1:	8b 05 e1 13 20 00    	mov    0x2013e1(%rip),%eax        # 603188 <vis>
  401da7:	85 c0                	test   %eax,%eax
  401da9:	74 7f                	je     401e2a <init+0x47a>
  401dab:	be 64 00 00 00       	mov    $0x64,%esi
  401db0:	bf 64 00 00 00       	mov    $0x64,%edi
  401db5:	e8 36 f1 ff ff       	callq  400ef0 <glutInitWindowPosition@plt>
  401dba:	be f4 01 00 00       	mov    $0x1f4,%esi
  401dbf:	bf f4 01 00 00       	mov    $0x1f4,%edi
  401dc4:	e8 47 f0 ff ff       	callq  400e10 <glutInitWindowSize@plt>
  401dc9:	bf 12 00 00 00       	mov    $0x12,%edi
  401dce:	e8 dd f1 ff ff       	callq  400fb0 <glutInitDisplayMode@plt>
  401dd3:	bf 58 23 40 00       	mov    $0x402358,%edi
  401dd8:	e8 73 f1 ff ff       	callq  400f50 <glutCreateWindow@plt>
  401ddd:	0f 57 db             	xorps  %xmm3,%xmm3
  401de0:	0f 28 d3             	movaps %xmm3,%xmm2
  401de3:	0f 28 cb             	movaps %xmm3,%xmm1
  401de6:	0f 28 c3             	movaps %xmm3,%xmm0
  401de9:	e8 f2 f0 ff ff       	callq  400ee0 <glClearColor@plt>
  401dee:	bf 71 0b 00 00       	mov    $0xb71,%edi
  401df3:	e8 e8 ef ff ff       	callq  400de0 <glEnable@plt>
  401df8:	be 02 11 00 00       	mov    $0x1102,%esi
  401dfd:	bf 50 0c 00 00       	mov    $0xc50,%edi
  401e02:	e8 e9 ef ff ff       	callq  400df0 <glHint@plt>
  401e07:	be 01 11 00 00       	mov    $0x1101,%esi
  401e0c:	bf f0 80 00 00       	mov    $0x80f0,%edi
  401e11:	e8 da ef ff ff       	callq  400df0 <glHint@plt>
  401e16:	bf 00 12 40 00       	mov    $0x401200,%edi
  401e1b:	e8 a0 f0 ff ff       	callq  400ec0 <glutDisplayFunc@plt>
  401e20:	bf 50 22 40 00       	mov    $0x402250,%edi
  401e25:	e8 56 f0 ff ff       	callq  400e80 <glutIdleFunc@plt>
  401e2a:	48 83 c4 18          	add    $0x18,%rsp
  401e2e:	5b                   	pop    %rbx
  401e2f:	5d                   	pop    %rbp
  401e30:	41 5c                	pop    %r12
  401e32:	41 5d                	pop    %r13
  401e34:	c3                   	retq   
  401e35:	31 c0                	xor    %eax,%eax
  401e37:	e9 43 fd ff ff       	jmpq   401b7f <init+0x1cf>
  401e3c:	31 c0                	xor    %eax,%eax
  401e3e:	e9 9e fb ff ff       	jmpq   4019e1 <init+0x31>
  401e43:	31 c0                	xor    %eax,%eax
  401e45:	e9 c5 fb ff ff       	jmpq   401a0f <init+0x5f>
  401e4a:	31 c0                	xor    %eax,%eax
  401e4c:	0f 1f 40 00          	nopl   0x0(%rax)
  401e50:	e9 e8 fb ff ff       	jmpq   401a3d <init+0x8d>
  401e55:	31 c0                	xor    %eax,%eax
  401e57:	e9 0f fc ff ff       	jmpq   401a6b <init+0xbb>
  401e5c:	31 c0                	xor    %eax,%eax
  401e5e:	66 90                	xchg   %ax,%ax
  401e60:	e9 34 fc ff ff       	jmpq   401a99 <init+0xe9>
  401e65:	31 c0                	xor    %eax,%eax
  401e67:	e9 5b fc ff ff       	jmpq   401ac7 <init+0x117>
  401e6c:	31 c0                	xor    %eax,%eax
  401e6e:	66 90                	xchg   %ax,%ax
  401e70:	e9 80 fc ff ff       	jmpq   401af5 <init+0x145>
  401e75:	31 c0                	xor    %eax,%eax
  401e77:	e9 a7 fc ff ff       	jmpq   401b23 <init+0x173>
  401e7c:	31 c0                	xor    %eax,%eax
  401e7e:	66 90                	xchg   %ax,%ax
  401e80:	e9 cc fc ff ff       	jmpq   401b51 <init+0x1a1>
  401e85:	66 66 2e 0f 1f 84 00 	data32 nopw %cs:0x0(%rax,%rax,1)
  401e8c:	00 00 00 00 

0000000000401e90 <verify>:
  401e90:	41 55                	push   %r13
  401e92:	66 0f 57 c0          	xorpd  %xmm0,%xmm0
  401e96:	41 54                	push   %r12
  401e98:	55                   	push   %rbp
  401e99:	53                   	push   %rbx
  401e9a:	48 83 ec 18          	sub    $0x18,%rsp
  401e9e:	8b 05 2c 13 20 00    	mov    0x20132c(%rip),%eax        # 6031d0 <N>
  401ea4:	85 c0                	test   %eax,%eax
  401ea6:	0f 8e e3 00 00 00    	jle    401f8f <verify+0xff>
  401eac:	0f 57 db             	xorps  %xmm3,%xmm3
  401eaf:	31 ed                	xor    %ebp,%ebp
  401eb1:	f2 0f 10 25 7f 06 00 	movsd  0x67f(%rip),%xmm4        # 402538 <_IO_stdin_used+0x1e8>
  401eb8:	00 
  401eb9:	45 31 ed             	xor    %r13d,%r13d
  401ebc:	0f 1f 40 00          	nopl   0x0(%rax)
  401ec0:	31 db                	xor    %ebx,%ebx
  401ec2:	66 0f 1f 44 00 00    	nopw   0x0(%rax,%rax,1)
  401ec8:	48 8b 05 c9 12 20 00 	mov    0x2012c9(%rip),%rax        # 603198 <x>
  401ecf:	4c 8d 24 9d 00 00 00 	lea    0x0(,%rbx,4),%r12
  401ed6:	00 
  401ed7:	f3 0f 10 04 98       	movss  (%rax,%rbx,4),%xmm0
  401edc:	f3 0f 5c 04 28       	subss  (%rax,%rbp,1),%xmm0
  401ee1:	48 8b 05 d0 12 20 00 	mov    0x2012d0(%rip),%rax        # 6031b8 <y>
  401ee8:	f3 0f 10 14 98       	movss  (%rax,%rbx,4),%xmm2
  401eed:	f3 0f 5c 14 28       	subss  (%rax,%rbp,1),%xmm2
  401ef2:	48 8b 05 df 12 20 00 	mov    0x2012df(%rip),%rax        # 6031d8 <z>
  401ef9:	f3 0f 59 c0          	mulss  %xmm0,%xmm0
  401efd:	f3 0f 10 0c 98       	movss  (%rax,%rbx,4),%xmm1
  401f02:	f3 0f 5c 0c 28       	subss  (%rax,%rbp,1),%xmm1
  401f07:	f3 0f 59 d2          	mulss  %xmm2,%xmm2
  401f0b:	f3 0f 59 c9          	mulss  %xmm1,%xmm1
  401f0f:	f3 0f 58 c2          	addss  %xmm2,%xmm0
  401f13:	f3 0f 58 c1          	addss  %xmm1,%xmm0
  401f17:	f3 0f 58 05 31 12 20 	addss  0x201231(%rip),%xmm0        # 603150 <eps>
  401f1e:	00 
  401f1f:	0f 14 c0             	unpcklps %xmm0,%xmm0
  401f22:	0f 5a c0             	cvtps2pd %xmm0,%xmm0
  401f25:	f2 0f 51 c8          	sqrtsd %xmm0,%xmm1
  401f29:	66 0f 2e c9          	ucomisd %xmm1,%xmm1
  401f2d:	7a 7e                	jp     401fad <verify+0x11d>
  401f2f:	66 0f 28 ec          	movapd %xmm4,%xmm5
  401f33:	48 8b 05 76 12 20 00 	mov    0x201276(%rip),%rax        # 6031b0 <m>
  401f3a:	8d 53 01             	lea    0x1(%rbx),%edx
  401f3d:	48 83 c3 01          	add    $0x1,%rbx
  401f41:	f2 0f 5e e9          	divsd  %xmm1,%xmm5
  401f45:	66 0f 28 cd          	movapd %xmm5,%xmm1
  401f49:	66 0f 14 c9          	unpcklpd %xmm1,%xmm1
  401f4d:	66 0f 5a c9          	cvtpd2ps %xmm1,%xmm1
  401f51:	0f 28 c1             	movaps %xmm1,%xmm0
  401f54:	f3 0f 59 c1          	mulss  %xmm1,%xmm0
  401f58:	f3 0f 59 c1          	mulss  %xmm1,%xmm0
  401f5c:	f3 42 0f 59 04 20    	mulss  (%rax,%r12,1),%xmm0
  401f62:	8b 05 68 12 20 00    	mov    0x201268(%rip),%eax        # 6031d0 <N>
  401f68:	39 d0                	cmp    %edx,%eax
  401f6a:	f3 0f 58 d8          	addss  %xmm0,%xmm3
  401f6e:	0f 8f 54 ff ff ff    	jg     401ec8 <verify+0x38>
  401f74:	41 83 c5 01          	add    $0x1,%r13d
  401f78:	48 83 c5 04          	add    $0x4,%rbp
  401f7c:	44 39 e8             	cmp    %r13d,%eax
  401f7f:	7e 08                	jle    401f89 <verify+0xf9>
  401f81:	85 c0                	test   %eax,%eax
  401f83:	0f 8f 37 ff ff ff    	jg     401ec0 <verify+0x30>
  401f89:	0f 14 db             	unpcklps %xmm3,%xmm3
  401f8c:	0f 5a c3             	cvtps2pd %xmm3,%xmm0
  401f8f:	48 83 c4 18          	add    $0x18,%rsp
  401f93:	be 50 24 40 00       	mov    $0x402450,%esi
  401f98:	bf 01 00 00 00       	mov    $0x1,%edi
  401f9d:	5b                   	pop    %rbx
  401f9e:	5d                   	pop    %rbp
  401f9f:	41 5c                	pop    %r12
  401fa1:	41 5d                	pop    %r13
  401fa3:	b8 01 00 00 00       	mov    $0x1,%eax
  401fa8:	e9 b3 ee ff ff       	jmpq   400e60 <__printf_chk@plt>
  401fad:	f2 0f 11 64 24 08    	movsd  %xmm4,0x8(%rsp)
  401fb3:	f3 0f 11 5c 24 04    	movss  %xmm3,0x4(%rsp)
  401fb9:	e8 22 f0 ff ff       	callq  400fe0 <sqrt@plt>
  401fbe:	f2 0f 10 64 24 08    	movsd  0x8(%rsp),%xmm4
  401fc4:	66 0f 28 c8          	movapd %xmm0,%xmm1
  401fc8:	f3 0f 10 5c 24 04    	movss  0x4(%rsp),%xmm3
  401fce:	e9 5c ff ff ff       	jmpq   401f2f <verify+0x9f>
  401fd3:	66 66 66 66 2e 0f 1f 	data32 data32 data32 nopw %cs:0x0(%rax,%rax,1)
  401fda:	84 00 00 00 00 00 

0000000000401fe0 <cleanup>:
  401fe0:	48 83 ec 08          	sub    $0x8,%rsp
  401fe4:	48 8b 3d ad 11 20 00 	mov    0x2011ad(%rip),%rdi        # 603198 <x>
  401feb:	e8 10 ef ff ff       	callq  400f00 <free@plt>
  401ff0:	48 8b 3d c1 11 20 00 	mov    0x2011c1(%rip),%rdi        # 6031b8 <y>
  401ff7:	e8 04 ef ff ff       	callq  400f00 <free@plt>
  401ffc:	48 8b 3d d5 11 20 00 	mov    0x2011d5(%rip),%rdi        # 6031d8 <z>
  402003:	e8 f8 ee ff ff       	callq  400f00 <free@plt>
  402008:	48 8b 3d d1 11 20 00 	mov    0x2011d1(%rip),%rdi        # 6031e0 <ax>
  40200f:	e8 ec ee ff ff       	callq  400f00 <free@plt>
  402014:	48 8b 3d 75 11 20 00 	mov    0x201175(%rip),%rdi        # 603190 <ay>
  40201b:	e8 e0 ee ff ff       	callq  400f00 <free@plt>
  402020:	48 8b 3d 79 11 20 00 	mov    0x201179(%rip),%rdi        # 6031a0 <az>
  402027:	e8 d4 ee ff ff       	callq  400f00 <free@plt>
  40202c:	48 8b 3d 75 11 20 00 	mov    0x201175(%rip),%rdi        # 6031a8 <vx>
  402033:	e8 c8 ee ff ff       	callq  400f00 <free@plt>
  402038:	48 8b 3d 89 11 20 00 	mov    0x201189(%rip),%rdi        # 6031c8 <vy>
  40203f:	e8 bc ee ff ff       	callq  400f00 <free@plt>
  402044:	48 8b 3d 9d 11 20 00 	mov    0x20119d(%rip),%rdi        # 6031e8 <vz>
  40204b:	e8 b0 ee ff ff       	callq  400f00 <free@plt>
  402050:	48 8b 3d 59 11 20 00 	mov    0x201159(%rip),%rdi        # 6031b0 <m>
  402057:	e8 a4 ee ff ff       	callq  400f00 <free@plt>
  40205c:	48 8b 3d 8d 11 20 00 	mov    0x20118d(%rip),%rdi        # 6031f0 <c>
  402063:	48 83 c4 08          	add    $0x8,%rsp
  402067:	e9 94 ee ff ff       	jmpq   400f00 <free@plt>
  40206c:	0f 1f 40 00          	nopl   0x0(%rax)

0000000000402070 <check_exit>:
  402070:	39 3d 4a 11 20 00    	cmp    %edi,0x20114a(%rip)        # 6031c0 <steps>
  402076:	7e 02                	jle    40207a <check_exit+0xa>
  402078:	f3 c3                	repz retq 
  40207a:	50                   	push   %rax
  40207b:	be cf 24 40 00       	mov    $0x4024cf,%esi
  402080:	bf 01 00 00 00       	mov    $0x1,%edi
  402085:	31 c0                	xor    %eax,%eax
  402087:	e8 d4 ed ff ff       	callq  400e60 <__printf_chk@plt>
  40208c:	f2 0f 10 05 ec 10 20 	movsd  0x2010ec(%rip),%xmm0        # 603180 <l0>
  402093:	00 
  402094:	be 5e 24 40 00       	mov    $0x40245e,%esi
  402099:	bf 01 00 00 00       	mov    $0x1,%edi
  40209e:	b8 01 00 00 00       	mov    $0x1,%eax
  4020a3:	e8 b8 ed ff ff       	callq  400e60 <__printf_chk@plt>
  4020a8:	f2 0f 10 05 c8 10 20 	movsd  0x2010c8(%rip),%xmm0        # 603178 <l1>
  4020af:	00 
  4020b0:	be 75 24 40 00       	mov    $0x402475,%esi
  4020b5:	bf 01 00 00 00       	mov    $0x1,%edi
  4020ba:	b8 01 00 00 00       	mov    $0x1,%eax
  4020bf:	e8 9c ed ff ff       	callq  400e60 <__printf_chk@plt>
  4020c4:	f2 0f 10 05 a4 10 20 	movsd  0x2010a4(%rip),%xmm0        # 603170 <l2>
  4020cb:	00 
  4020cc:	be 8c 24 40 00       	mov    $0x40248c,%esi
  4020d1:	bf 01 00 00 00       	mov    $0x1,%edi
  4020d6:	b8 01 00 00 00       	mov    $0x1,%eax
  4020db:	e8 80 ed ff ff       	callq  400e60 <__printf_chk@plt>
  4020e0:	f2 0f 10 05 80 10 20 	movsd  0x201080(%rip),%xmm0        # 603168 <l3>
  4020e7:	00 
  4020e8:	be a3 24 40 00       	mov    $0x4024a3,%esi
  4020ed:	bf 01 00 00 00       	mov    $0x1,%edi
  4020f2:	b8 01 00 00 00       	mov    $0x1,%eax
  4020f7:	e8 64 ed ff ff       	callq  400e60 <__printf_chk@plt>
  4020fc:	f2 0f 10 05 7c 10 20 	movsd  0x20107c(%rip),%xmm0        # 603180 <l0>
  402103:	00 
  402104:	be ba 24 40 00       	mov    $0x4024ba,%esi
  402109:	bf 01 00 00 00       	mov    $0x1,%edi
  40210e:	b8 01 00 00 00       	mov    $0x1,%eax
  402113:	f2 0f 58 05 5d 10 20 	addsd  0x20105d(%rip),%xmm0        # 603178 <l1>
  40211a:	00 
  40211b:	f2 0f 58 05 4d 10 20 	addsd  0x20104d(%rip),%xmm0        # 603170 <l2>
  402122:	00 
  402123:	f2 0f 58 05 3d 10 20 	addsd  0x20103d(%rip),%xmm0        # 603168 <l3>
  40212a:	00 
  40212b:	e8 30 ed ff ff       	callq  400e60 <__printf_chk@plt>
  402130:	be cf 24 40 00       	mov    $0x4024cf,%esi
  402135:	bf 01 00 00 00       	mov    $0x1,%edi
  40213a:	31 c0                	xor    %eax,%eax
  40213c:	e8 1f ed ff ff       	callq  400e60 <__printf_chk@plt>
  402141:	8b 05 89 10 20 00    	mov    0x201089(%rip),%eax        # 6031d0 <N>
  402147:	be d1 24 40 00       	mov    $0x4024d1,%esi
  40214c:	bf 01 00 00 00       	mov    $0x1,%edi
  402151:	f2 0f 2a c0          	cvtsi2sd %eax,%xmm0
  402155:	83 e8 01             	sub    $0x1,%eax
  402158:	f2 0f 2a c8          	cvtsi2sd %eax,%xmm1
  40215c:	b8 01 00 00 00       	mov    $0x1,%eax
  402161:	f2 0f 59 05 d7 03 00 	mulsd  0x3d7(%rip),%xmm0        # 402540 <_IO_stdin_used+0x1f0>
  402168:	00 
  402169:	f2 0f 59 c1          	mulsd  %xmm1,%xmm0
  40216d:	f2 0f 2a 0d 4b 10 20 	cvtsi2sdl 0x20104b(%rip),%xmm1        # 6031c0 <steps>
  402174:	00 
  402175:	f2 0f 59 c1          	mulsd  %xmm1,%xmm0
  402179:	f2 0f 10 0d ff 0f 20 	movsd  0x200fff(%rip),%xmm1        # 603180 <l0>
  402180:	00 
  402181:	f2 0f 58 0d ef 0f 20 	addsd  0x200fef(%rip),%xmm1        # 603178 <l1>
  402188:	00 
  402189:	f2 0f 5e 05 b7 03 00 	divsd  0x3b7(%rip),%xmm0        # 402548 <_IO_stdin_used+0x1f8>
  402190:	00 
  402191:	f2 0f 58 0d d7 0f 20 	addsd  0x200fd7(%rip),%xmm1        # 603170 <l2>
  402198:	00 
  402199:	f2 0f 58 0d c7 0f 20 	addsd  0x200fc7(%rip),%xmm1        # 603168 <l3>
  4021a0:	00 
  4021a1:	f2 0f 5e c1          	divsd  %xmm1,%xmm0
  4021a5:	e8 b6 ec ff ff       	callq  400e60 <__printf_chk@plt>
  4021aa:	f2 0f 2a 05 1e 10 20 	cvtsi2sdl 0x20101e(%rip),%xmm0        # 6031d0 <N>
  4021b1:	00 
  4021b2:	f2 0f 2a 0d 06 10 20 	cvtsi2sdl 0x201006(%rip),%xmm1        # 6031c0 <steps>
  4021b9:	00 
  4021ba:	f2 0f 59 05 8e 03 00 	mulsd  0x38e(%rip),%xmm0        # 402550 <_IO_stdin_used+0x200>
  4021c1:	00 
  4021c2:	be e0 24 40 00       	mov    $0x4024e0,%esi
  4021c7:	bf 01 00 00 00       	mov    $0x1,%edi
  4021cc:	b8 01 00 00 00       	mov    $0x1,%eax
  4021d1:	f2 0f 59 05 7f 03 00 	mulsd  0x37f(%rip),%xmm0        # 402558 <_IO_stdin_used+0x208>
  4021d8:	00 
  4021d9:	f2 0f 59 c1          	mulsd  %xmm1,%xmm0
  4021dd:	f2 0f 10 0d 9b 0f 20 	movsd  0x200f9b(%rip),%xmm1        # 603180 <l0>
  4021e4:	00 
  4021e5:	f2 0f 58 0d 8b 0f 20 	addsd  0x200f8b(%rip),%xmm1        # 603178 <l1>
  4021ec:	00 
  4021ed:	f2 0f 5e 05 53 03 00 	divsd  0x353(%rip),%xmm0        # 402548 <_IO_stdin_used+0x1f8>
  4021f4:	00 
  4021f5:	f2 0f 58 0d 73 0f 20 	addsd  0x200f73(%rip),%xmm1        # 603170 <l2>
  4021fc:	00 
  4021fd:	f2 0f 58 0d 63 0f 20 	addsd  0x200f63(%rip),%xmm1        # 603168 <l3>
  402204:	00 
  402205:	f2 0f 5e c1          	divsd  %xmm1,%xmm0
  402209:	e8 52 ec ff ff       	callq  400e60 <__printf_chk@plt>
  40220e:	be cf 24 40 00       	mov    $0x4024cf,%esi
  402213:	bf 01 00 00 00       	mov    $0x1,%edi
  402218:	31 c0                	xor    %eax,%eax
  40221a:	e8 41 ec ff ff       	callq  400e60 <__printf_chk@plt>
  40221f:	31 c0                	xor    %eax,%eax
  402221:	e8 6a fc ff ff       	callq  401e90 <verify>
  402226:	bf 01 00 00 00       	mov    $0x1,%edi
  40222b:	be cf 24 40 00       	mov    $0x4024cf,%esi
  402230:	31 c0                	xor    %eax,%eax
  402232:	e8 29 ec ff ff       	callq  400e60 <__printf_chk@plt>
  402237:	31 c0                	xor    %eax,%eax
  402239:	e8 a2 fd ff ff       	callq  401fe0 <cleanup>
  40223e:	31 ff                	xor    %edi,%edi
  402240:	e8 0b ec ff ff       	callq  400e50 <exit@plt>
  402245:	66 66 2e 0f 1f 84 00 	data32 nopw %cs:0x0(%rax,%rax,1)
  40224c:	00 00 00 00 

0000000000402250 <update>:
  402250:	48 83 ec 18          	sub    $0x18,%rsp
  402254:	31 c0                	xor    %eax,%eax
  402256:	e8 15 f1 ff ff       	callq  401370 <wtime>
  40225b:	31 c0                	xor    %eax,%eax
  40225d:	f2 0f 11 44 24 08    	movsd  %xmm0,0x8(%rsp)
  402263:	e8 38 f1 ff ff       	callq  4013a0 <compute>
  402268:	31 c0                	xor    %eax,%eax
  40226a:	e8 01 f1 ff ff       	callq  401370 <wtime>
  40226f:	f2 0f 5c 44 24 08    	subsd  0x8(%rsp),%xmm0
  402275:	f2 0f 10 0d e3 02 00 	movsd  0x2e3(%rip),%xmm1        # 402560 <_IO_stdin_used+0x210>
  40227c:	00 
  40227d:	66 0f 2e c8          	ucomisd %xmm0,%xmm1
  402281:	77 2d                	ja     4022b0 <update+0x60>
  402283:	8b 05 ff 0e 20 00    	mov    0x200eff(%rip),%eax        # 603188 <vis>
  402289:	85 c0                	test   %eax,%eax
  40228b:	74 05                	je     402292 <update+0x42>
  40228d:	e8 7e ec ff ff       	callq  400f10 <glutPostRedisplay@plt>
  402292:	8b 3d c8 0e 20 00    	mov    0x200ec8(%rip),%edi        # 603160 <t>
  402298:	8d 47 01             	lea    0x1(%rdi),%eax
  40229b:	89 05 bf 0e 20 00    	mov    %eax,0x200ebf(%rip)        # 603160 <t>
  4022a1:	48 83 c4 18          	add    $0x18,%rsp
  4022a5:	e9 c6 fd ff ff       	jmpq   402070 <check_exit>
  4022aa:	66 0f 1f 44 00 00    	nopw   0x0(%rax,%rax,1)
  4022b0:	f2 0f 5c c8          	subsd  %xmm0,%xmm1
  4022b4:	31 c0                	xor    %eax,%eax
  4022b6:	f2 0f 59 0d aa 02 00 	mulsd  0x2aa(%rip),%xmm1        # 402568 <_IO_stdin_used+0x218>
  4022bd:	00 
  4022be:	f2 48 0f 2c f9       	cvttsd2si %xmm1,%rdi
  4022c3:	e8 58 ec ff ff       	callq  400f20 <usleep@plt>
  4022c8:	eb b9                	jmp    402283 <update+0x33>
  4022ca:	66 0f 1f 44 00 00    	nopw   0x0(%rax,%rax,1)

00000000004022d0 <__libc_csu_init>:
  4022d0:	41 57                	push   %r15
  4022d2:	41 89 ff             	mov    %edi,%r15d
  4022d5:	41 56                	push   %r14
  4022d7:	49 89 f6             	mov    %rsi,%r14
  4022da:	41 55                	push   %r13
  4022dc:	49 89 d5             	mov    %rdx,%r13
  4022df:	41 54                	push   %r12
  4022e1:	4c 8d 25 e8 0a 20 00 	lea    0x200ae8(%rip),%r12        # 602dd0 <__frame_dummy_init_array_entry>
  4022e8:	55                   	push   %rbp
  4022e9:	48 8d 2d e8 0a 20 00 	lea    0x200ae8(%rip),%rbp        # 602dd8 <__init_array_end>
  4022f0:	53                   	push   %rbx
  4022f1:	4c 29 e5             	sub    %r12,%rbp
  4022f4:	31 db                	xor    %ebx,%ebx
  4022f6:	48 c1 fd 03          	sar    $0x3,%rbp
  4022fa:	48 83 ec 08          	sub    $0x8,%rsp
  4022fe:	e8 8d ea ff ff       	callq  400d90 <_init>
  402303:	48 85 ed             	test   %rbp,%rbp
  402306:	74 1e                	je     402326 <__libc_csu_init+0x56>
  402308:	0f 1f 84 00 00 00 00 	nopl   0x0(%rax,%rax,1)
  40230f:	00 
  402310:	4c 89 ea             	mov    %r13,%rdx
  402313:	4c 89 f6             	mov    %r14,%rsi
  402316:	44 89 ff             	mov    %r15d,%edi
  402319:	41 ff 14 dc          	callq  *(%r12,%rbx,8)
  40231d:	48 83 c3 01          	add    $0x1,%rbx
  402321:	48 39 eb             	cmp    %rbp,%rbx
  402324:	75 ea                	jne    402310 <__libc_csu_init+0x40>
  402326:	48 83 c4 08          	add    $0x8,%rsp
  40232a:	5b                   	pop    %rbx
  40232b:	5d                   	pop    %rbp
  40232c:	41 5c                	pop    %r12
  40232e:	41 5d                	pop    %r13
  402330:	41 5e                	pop    %r14
  402332:	41 5f                	pop    %r15
  402334:	c3                   	retq   
  402335:	66 66 2e 0f 1f 84 00 	data32 nopw %cs:0x0(%rax,%rax,1)
  40233c:	00 00 00 00 

0000000000402340 <__libc_csu_fini>:
  402340:	f3 c3                	repz retq 

Disassembly of section .fini:

0000000000402344 <_fini>:
  402344:	48 83 ec 08          	sub    $0x8,%rsp
  402348:	48 83 c4 08          	add    $0x8,%rsp
  40234c:	c3                   	retq   
